ccopy_reg
_reconstructor
p0
(c__main__
DecisionNode
p1
c__builtin__
object
p2
Ntp3
Rp4
(dp5
S'prediction'
p6
NsS'split_col'
p7
I10
sS'right'
p8
g0
(g1
g2
Ntp9
Rp10
(dp11
g6
Nsg7
I5
sg8
g0
(g1
g2
Ntp12
Rp13
(dp14
g6
Nsg7
I14
sg8
g0
(g1
g2
Ntp15
Rp16
(dp17
g6
Nsg7
I7
sg8
g0
(g1
g2
Ntp18
Rp19
(dp20
g6
Nsg7
I12
sg8
g0
(g1
g2
Ntp21
Rp22
(dp23
g6
Nsg7
I14
sg8
g0
(g1
g2
Ntp24
Rp25
(dp26
g6
Nsg7
I10
sg8
g0
(g1
g2
Ntp27
Rp28
(dp29
g6
Nsg7
I1
sg8
g0
(g1
g2
Ntp30
Rp31
(dp32
g6
Nsg7
I7
sg8
g0
(g1
g2
Ntp33
Rp34
(dp35
g6
Nsg7
I0
sg8
g0
(c__main__
LeafNode
p36
g2
Ntp37
Rp38
(dp39
g6
cnumpy.core.multiarray
scalar
p40
(cnumpy
dtype
p41
(S'S1'
p42
I0
I1
tp43
Rp44
(I3
S'|'
p45
NNNI1
I1
I0
tp46
bS'Q'
p47
tp48
Rp49
sg7
Nsg8
NsS'split_val'
p50
NsS'left'
p51
Nsbsg50
g40
(g41
(S'f8'
p52
I0
I1
tp53
Rp54
(I3
S'<'
p55
NNNI-1
I-1
I0
tp56
bS'\x00\x00\x00\x00\x00\x00\x14@'
p57
tp58
Rp59
sg51
g0
(g36
g2
Ntp60
Rp61
(dp62
g6
g40
(g41
(S'S1'
p63
I0
I1
tp64
Rp65
(I3
S'|'
p66
NNNI1
I1
I0
tp67
bS'E'
p68
tp69
Rp70
sg7
Nsg8
Nsg50
Nsg51
Nsbsbsg50
g40
(g54
S'\x00\x00\x00\x00\x00\x00\x18@'
p71
tp72
Rp73
sg51
g0
(g36
g2
Ntp74
Rp75
(dp76
g6
g40
(g41
(S'S1'
p77
I0
I1
tp78
Rp79
(I3
S'|'
p80
NNNI1
I1
I0
tp81
bS'C'
p82
tp83
Rp84
sg7
Nsg8
Nsg50
Nsg51
Nsbsbsg50
g40
(g54
S'\x00\x00\x00\x00\x00\x00$@'
p85
tp86
Rp87
sg51
g0
(g1
g2
Ntp88
Rp89
(dp90
g6
Nsg7
I3
sg8
g0
(g1
g2
Ntp91
Rp92
(dp93
g6
Nsg7
I8
sg8
g0
(g1
g2
Ntp94
Rp95
(dp96
g6
Nsg7
I1
sg8
g0
(g36
g2
Ntp97
Rp98
(dp99
g6
g40
(g41
(S'S1'
p100
I0
I1
tp101
Rp102
(I3
S'|'
p103
NNNI1
I1
I0
tp104
bg68
tp105
Rp106
sg7
Nsg8
Nsg50
Nsg51
Nsbsg50
g40
(g54
S'\x00\x00\x00\x00\x00\x00"@'
p107
tp108
Rp109
sg51
g0
(g36
g2
Ntp110
Rp111
(dp112
g6
g40
(g41
(S'S1'
p113
I0
I1
tp114
Rp115
(I3
S'|'
p116
NNNI1
I1
I0
tp117
bg47
tp118
Rp119
sg7
Nsg8
Nsg50
Nsg51
Nsbsbsg50
g40
(g54
S'\x00\x00\x00\x00\x00\x00\x18@'
p120
tp121
Rp122
sg51
g0
(g36
g2
Ntp123
Rp124
(dp125
g6
g40
(g41
(S'S1'
p126
I0
I1
tp127
Rp128
(I3
S'|'
p129
NNNI1
I1
I0
tp130
bg47
tp131
Rp132
sg7
Nsg8
Nsg50
Nsg51
Nsbsbsg50
g40
(g54
S'\x00\x00\x00\x00\x00\x00\x18@'
p133
tp134
Rp135
sg51
g0
(g1
g2
Ntp136
Rp137
(dp138
g6
Nsg7
I1
sg8
g0
(g36
g2
Ntp139
Rp140
(dp141
g6
g40
(g41
(S'S1'
p142
I0
I1
tp143
Rp144
(I3
S'|'
p145
NNNI1
I1
I0
tp146
bg82
tp147
Rp148
sg7
Nsg8
Nsg50
Nsg51
Nsbsg50
g40
(g54
S'\x00\x00\x00\x00\x00\x00"@'
p149
tp150
Rp151
sg51
g0
(g1
g2
Ntp152
Rp153
(dp154
g6
Nsg7
I0
sg8
g0
(g36
g2
Ntp155
Rp156
(dp157
g6
g40
(g41
(S'S1'
p158
I0
I1
tp159
Rp160
(I3
S'|'
p161
NNNI1
I1
I0
tp162
bg47
tp163
Rp164
sg7
Nsg8
Nsg50
Nsg51
Nsbsg50
g40
(g54
S'\x00\x00\x00\x00\x00\x00\x14@'
p165
tp166
Rp167
sg51
g0
(g36
g2
Ntp168
Rp169
(dp170
g6
g40
(g41
(S'S1'
p171
I0
I1
tp172
Rp173
(I3
S'|'
p174
NNNI1
I1
I0
tp175
bg68
tp176
Rp177
sg7
Nsg8
Nsg50
Nsg51
Nsbsbsbsbsbsg50
g40
(g54
S'\x00\x00\x00\x00\x00\x00 @'
p178
tp179
Rp180
sg51
g0
(g1
g2
Ntp181
Rp182
(dp183
g6
Nsg7
I15
sg8
g0
(g1
g2
Ntp184
Rp185
(dp186
g6
Nsg7
I5
sg8
g0
(g1
g2
Ntp187
Rp188
(dp189
g6
Nsg7
I13
sg8
g0
(g1
g2
Ntp190
Rp191
(dp192
g6
Nsg7
I15
sg8
g0
(g1
g2
Ntp193
Rp194
(dp195
g6
Nsg7
I4
sg8
g0
(g1
g2
Ntp196
Rp197
(dp198
g6
Nsg7
I1
sg8
g0
(g1
g2
Ntp199
Rp200
(dp201
g6
Nsg7
I8
sg8
g0
(g36
g2
Ntp202
Rp203
(dp204
g6
g40
(g41
(S'S1'
p205
I0
I1
tp206
Rp207
(I3
S'|'
p208
NNNI1
I1
I0
tp209
bg47
tp210
Rp211
sg7
Nsg8
Nsg50
Nsg51
Nsbsg50
g40
(g54
S'\x00\x00\x00\x00\x00\x00\x18@'
p212
tp213
Rp214
sg51
g0
(g36
g2
Ntp215
Rp216
(dp217
g6
g40
(g41
(S'S1'
p218
I0
I1
tp219
Rp220
(I3
S'|'
p221
NNNI1
I1
I0
tp222
bg68
tp223
Rp224
sg7
Nsg8
Nsg50
Nsg51
Nsbsbsg50
g40
(g54
S'\x00\x00\x00\x00\x00\x00*@'
p225
tp226
Rp227
sg51
g0
(g36
g2
Ntp228
Rp229
(dp230
g6
g40
(g41
(S'S1'
p231
I0
I1
tp232
Rp233
(I3
S'|'
p234
NNNI1
I1
I0
tp235
bg47
tp236
Rp237
sg7
Nsg8
Nsg50
Nsg51
Nsbsbsg50
g40
(g54
S'\x00\x00\x00\x00\x00\x00\x08@'
p238
tp239
Rp240
sg51
g0
(g1
g2
Ntp241
Rp242
(dp243
g6
Nsg7
I5
sg8
g0
(g36
g2
Ntp244
Rp245
(dp246
g6
g40
(g41
(S'S1'
p247
I0
I1
tp248
Rp249
(I3
S'|'
p250
NNNI1
I1
I0
tp251
bg47
tp252
Rp253
sg7
Nsg8
Nsg50
Nsg51
Nsbsg50
g40
(g54
S'\x00\x00\x00\x00\x00\x00$@'
p254
tp255
Rp256
sg51
g0
(g36
g2
Ntp257
Rp258
(dp259
g6
g40
(g41
(S'S1'
p260
I0
I1
tp261
Rp262
(I3
S'|'
p263
NNNI1
I1
I0
tp264
bg68
tp265
Rp266
sg7
Nsg8
Nsg50
Nsg51
Nsbsbsbsg50
g40
(g54
S'\x00\x00\x00\x00\x00\x00"@'
p267
tp268
Rp269
sg51
g0
(g1
g2
Ntp270
Rp271
(dp272
g6
Nsg7
I1
sg8
g0
(g1
g2
Ntp273
Rp274
(dp275
g6
Nsg7
I0
sg8
g0
(g36
g2
Ntp276
Rp277
(dp278
g6
g40
(g41
(S'S1'
p279
I0
I1
tp280
Rp281
(I3
S'|'
p282
NNNI1
I1
I0
tp283
bS'G'
p284
tp285
Rp286
sg7
Nsg8
Nsg50
Nsg51
Nsbsg50
g40
(g54
S'\x00\x00\x00\x00\x00\x00 @'
p287
tp288
Rp289
sg51
g0
(g36
g2
Ntp290
Rp291
(dp292
g6
g40
(g41
(S'S1'
p293
I0
I1
tp294
Rp295
(I3
S'|'
p296
NNNI1
I1
I0
tp297
bS'O'
p298
tp299
Rp300
sg7
Nsg8
Nsg50
Nsg51
Nsbsbsg50
g40
(g54
S'\x00\x00\x00\x00\x00\x00&@'
p301
tp302
Rp303
sg51
g0
(g36
g2
Ntp304
Rp305
(dp306
g6
g40
(g41
(S'S1'
p307
I0
I1
tp308
Rp309
(I3
S'|'
p310
NNNI1
I1
I0
tp311
bg47
tp312
Rp313
sg7
Nsg8
Nsg50
Nsg51
Nsbsbsbsg50
g40
(g54
S'\x00\x00\x00\x00\x00\x00\x18@'
p314
tp315
Rp316
sg51
g0
(g36
g2
Ntp317
Rp318
(dp319
g6
g40
(g41
(S'S1'
p320
I0
I1
tp321
Rp322
(I3
S'|'
p323
NNNI1
I1
I0
tp324
bS'A'
p325
tp326
Rp327
sg7
Nsg8
Nsg50
Nsg51
Nsbsbsg50
g40
(g54
S'\x00\x00\x00\x00\x00\x00"@'
p328
tp329
Rp330
sg51
g0
(g1
g2
Ntp331
Rp332
(dp333
g6
Nsg7
I7
sg8
g0
(g1
g2
Ntp334
Rp335
(dp336
g6
Nsg7
I11
sg8
g0
(g1
g2
Ntp337
Rp338
(dp339
g6
Nsg7
I10
sg8
g0
(g36
g2
Ntp340
Rp341
(dp342
g6
g40
(g41
(S'S1'
p343
I0
I1
tp344
Rp345
(I3
S'|'
p346
NNNI1
I1
I0
tp347
bg47
tp348
Rp349
sg7
Nsg8
Nsg50
Nsg51
Nsbsg50
g40
(g54
S'\x00\x00\x00\x00\x00\x00\x1c@'
p350
tp351
Rp352
sg51
g0
(g1
g2
Ntp353
Rp354
(dp355
g6
Nsg7
I3
sg8
g0
(g36
g2
Ntp356
Rp357
(dp358
g6
g40
(g41
(S'S1'
p359
I0
I1
tp360
Rp361
(I3
S'|'
p362
NNNI1
I1
I0
tp363
bg47
tp364
Rp365
sg7
Nsg8
Nsg50
Nsg51
Nsbsg50
g40
(g54
S'\x00\x00\x00\x00\x00\x00$@'
p366
tp367
Rp368
sg51
g0
(g36
g2
Ntp369
Rp370
(dp371
g6
g40
(g41
(S'S1'
p372
I0
I1
tp373
Rp374
(I3
S'|'
p375
NNNI1
I1
I0
tp376
bg68
tp377
Rp378
sg7
Nsg8
Nsg50
Nsg51
Nsbsbsbsg50
g40
(g54
S'\x00\x00\x00\x00\x00\x00&@'
p379
tp380
Rp381
sg51
g0
(g1
g2
Ntp382
Rp383
(dp384
g6
Nsg7
I5
sg8
g0
(g36
g2
Ntp385
Rp386
(dp387
g6
g40
(g41
(S'S1'
p388
I0
I1
tp389
Rp390
(I3
S'|'
p391
NNNI1
I1
I0
tp392
bg47
tp393
Rp394
sg7
Nsg8
Nsg50
Nsg51
Nsbsg50
g40
(g54
S'\x00\x00\x00\x00\x00\x00 @'
p395
tp396
Rp397
sg51
g0
(g1
g2
Ntp398
Rp399
(dp400
g6
Nsg7
I10
sg8
g0
(g36
g2
Ntp401
Rp402
(dp403
g6
g40
(g41
(S'S1'
p404
I0
I1
tp405
Rp406
(I3
S'|'
p407
NNNI1
I1
I0
tp408
bg47
tp409
Rp410
sg7
Nsg8
Nsg50
Nsg51
Nsbsg50
g40
(g54
S'\x00\x00\x00\x00\x00\x00\x1c@'
p411
tp412
Rp413
sg51
g0
(g1
g2
Ntp414
Rp415
(dp416
g6
Nsg7
I0
sg8
g0
(g36
g2
Ntp417
Rp418
(dp419
g6
g40
(g41
(S'S1'
p420
I0
I1
tp421
Rp422
(I3
S'|'
p423
NNNI1
I1
I0
tp424
bg284
tp425
Rp426
sg7
Nsg8
Nsg50
Nsg51
Nsbsg50
g40
(g54
S'\x00\x00\x00\x00\x00\x00\x14@'
p427
tp428
Rp429
sg51
g0
(g36
g2
Ntp430
Rp431
(dp432
g6
g40
(g41
(S'S1'
p433
I0
I1
tp434
Rp435
(I3
S'|'
p436
NNNI1
I1
I0
tp437
bg68
tp438
Rp439
sg7
Nsg8
Nsg50
Nsg51
Nsbsbsbsbsbsg50
g40
(g54
S'\x00\x00\x00\x00\x00\x00\x1c@'
p440
tp441
Rp442
sg51
g0
(g1
g2
Ntp443
Rp444
(dp445
g6
Nsg7
I10
sg8
g0
(g1
g2
Ntp446
Rp447
(dp448
g6
Nsg7
I15
sg8
g0
(g1
g2
Ntp449
Rp450
(dp451
g6
Nsg7
I12
sg8
g0
(g1
g2
Ntp452
Rp453
(dp454
g6
Nsg7
I12
sg8
g0
(g1
g2
Ntp455
Rp456
(dp457
g6
Nsg7
I8
sg8
g0
(g1
g2
Ntp458
Rp459
(dp460
g6
Nsg7
I1
sg8
g0
(g36
g2
Ntp461
Rp462
(dp463
g6
g40
(g41
(S'S1'
p464
I0
I1
tp465
Rp466
(I3
S'|'
p467
NNNI1
I1
I0
tp468
bg298
tp469
Rp470
sg7
Nsg8
Nsg50
Nsg51
Nsbsg50
g40
(g54
S'\x00\x00\x00\x00\x00\x00&@'
p471
tp472
Rp473
sg51
g0
(g1
g2
Ntp474
Rp475
(dp476
g6
Nsg7
I13
sg8
g0
(g36
g2
Ntp477
Rp478
(dp479
g6
g40
(g41
(S'S1'
p480
I0
I1
tp481
Rp482
(I3
S'|'
p483
NNNI1
I1
I0
tp484
bg68
tp485
Rp486
sg7
Nsg8
Nsg50
Nsg51
Nsbsg50
g40
(g54
S'\x00\x00\x00\x00\x00\x00(@'
p487
tp488
Rp489
sg51
g0
(g36
g2
Ntp490
Rp491
(dp492
g6
g40
(g41
(S'S1'
p493
I0
I1
tp494
Rp495
(I3
S'|'
p496
NNNI1
I1
I0
tp497
bg284
tp498
Rp499
sg7
Nsg8
Nsg50
Nsg51
Nsbsbsbsg50
g40
(g54
S'\x00\x00\x00\x00\x00\x00\x08@'
p500
tp501
Rp502
sg51
g0
(g1
g2
Ntp503
Rp504
(dp505
g6
Nsg7
I9
sg8
g0
(g36
g2
Ntp506
Rp507
(dp508
g6
g40
(g41
(S'S1'
p509
I0
I1
tp510
Rp511
(I3
S'|'
p512
NNNI1
I1
I0
tp513
bg298
tp514
Rp515
sg7
Nsg8
Nsg50
Nsg51
Nsbsg50
g40
(g54
S'\x00\x00\x00\x00\x00\x00\x1c@'
p516
tp517
Rp518
sg51
g0
(g36
g2
Ntp519
Rp520
(dp521
g6
g40
(g41
(S'S1'
p522
I0
I1
tp523
Rp524
(I3
S'|'
p525
NNNI1
I1
I0
tp526
bg47
tp527
Rp528
sg7
Nsg8
Nsg50
Nsg51
Nsbsbsbsg50
g40
(g54
S'\x00\x00\x00\x00\x00\x00"@'
p529
tp530
Rp531
sg51
g0
(g1
g2
Ntp532
Rp533
(dp534
g6
Nsg7
I5
sg8
g0
(g1
g2
Ntp535
Rp536
(dp537
g6
Nsg7
I3
sg8
g0
(g36
g2
Ntp538
Rp539
(dp540
g6
g40
(g41
(S'S1'
p541
I0
I1
tp542
Rp543
(I3
S'|'
p544
NNNI1
I1
I0
tp545
bg47
tp546
Rp547
sg7
Nsg8
Nsg50
Nsg51
Nsbsg50
g40
(g54
S'\x00\x00\x00\x00\x00\x00$@'
p548
tp549
Rp550
sg51
g0
(g1
g2
Ntp551
Rp552
(dp553
g6
Nsg7
I8
sg8
g0
(g36
g2
Ntp554
Rp555
(dp556
g6
g40
(g41
(S'S1'
p557
I0
I1
tp558
Rp559
(I3
S'|'
p560
NNNI1
I1
I0
tp561
bg68
tp562
Rp563
sg7
Nsg8
Nsg50
Nsg51
Nsbsg50
g40
(g54
S'\x00\x00\x00\x00\x00\x00\x1c@'
p564
tp565
Rp566
sg51
g0
(g36
g2
Ntp567
Rp568
(dp569
g6
g40
(g41
(S'S1'
p570
I0
I1
tp571
Rp572
(I3
S'|'
p573
NNNI1
I1
I0
tp574
bg284
tp575
Rp576
sg7
Nsg8
Nsg50
Nsg51
Nsbsbsbsg50
g40
(g54
S'\x00\x00\x00\x00\x00\x00 @'
p577
tp578
Rp579
sg51
g0
(g1
g2
Ntp580
Rp581
(dp582
g6
Nsg7
I10
sg8
g0
(g1
g2
Ntp583
Rp584
(dp585
g6
Nsg7
I11
sg8
g0
(g36
g2
Ntp586
Rp587
(dp588
g6
g40
(g41
(S'S1'
p589
I0
I1
tp590
Rp591
(I3
S'|'
p592
NNNI1
I1
I0
tp593
bg68
tp594
Rp595
sg7
Nsg8
Nsg50
Nsg51
Nsbsg50
g40
(g54
S'\x00\x00\x00\x00\x00\x00"@'
p596
tp597
Rp598
sg51
g0
(g1
g2
Ntp599
Rp600
(dp601
g6
Nsg7
I2
sg8
g0
(g36
g2
Ntp602
Rp603
(dp604
g6
g40
(g41
(S'S1'
p605
I0
I1
tp606
Rp607
(I3
S'|'
p608
NNNI1
I1
I0
tp609
bg284
tp610
Rp611
sg7
Nsg8
Nsg50
Nsg51
Nsbsg50
g40
(g54
S'\x00\x00\x00\x00\x00\x00\x1c@'
p612
tp613
Rp614
sg51
g0
(g36
g2
Ntp615
Rp616
(dp617
g6
g40
(g41
(S'S1'
p618
I0
I1
tp619
Rp620
(I3
S'|'
p621
NNNI1
I1
I0
tp622
bg68
tp623
Rp624
sg7
Nsg8
Nsg50
Nsg51
Nsbsbsbsg50
g40
(g54
S'\x00\x00\x00\x00\x00\x00\x18@'
p625
tp626
Rp627
sg51
g0
(g36
g2
Ntp628
Rp629
(dp630
g6
g40
(g41
(S'S1'
p631
I0
I1
tp632
Rp633
(I3
S'|'
p634
NNNI1
I1
I0
tp635
bg284
tp636
Rp637
sg7
Nsg8
Nsg50
Nsg51
Nsbsbsbsbsg50
g40
(g54
S'\x00\x00\x00\x00\x00\x00\x18@'
p638
tp639
Rp640
sg51
g0
(g1
g2
Ntp641
Rp642
(dp643
g6
Nsg7
I14
sg8
g0
(g1
g2
Ntp644
Rp645
(dp646
g6
Nsg7
I8
sg8
g0
(g36
g2
Ntp647
Rp648
(dp649
g6
g40
(g41
(S'S1'
p650
I0
I1
tp651
Rp652
(I3
S'|'
p653
NNNI1
I1
I0
tp654
bg47
tp655
Rp656
sg7
Nsg8
Nsg50
Nsg51
Nsbsg50
g40
(g54
S'\x00\x00\x00\x00\x00\x00\x1c@'
p657
tp658
Rp659
sg51
g0
(g36
g2
Ntp660
Rp661
(dp662
g6
g40
(g41
(S'S1'
p663
I0
I1
tp664
Rp665
(I3
S'|'
p666
NNNI1
I1
I0
tp667
bg68
tp668
Rp669
sg7
Nsg8
Nsg50
Nsg51
Nsbsbsg50
g40
(g54
S'\x00\x00\x00\x00\x00\x00"@'
p670
tp671
Rp672
sg51
g0
(g1
g2
Ntp673
Rp674
(dp675
g6
Nsg7
I8
sg8
g0
(g1
g2
Ntp676
Rp677
(dp678
g6
Nsg7
I3
sg8
g0
(g1
g2
Ntp679
Rp680
(dp681
g6
Nsg7
I0
sg8
g0
(g36
g2
Ntp682
Rp683
(dp684
g6
g40
(g41
(S'S1'
p685
I0
I1
tp686
Rp687
(I3
S'|'
p688
NNNI1
I1
I0
tp689
bg68
tp690
Rp691
sg7
Nsg8
Nsg50
Nsg51
Nsbsg50
g40
(g54
S'\x00\x00\x00\x00\x00\x00"@'
p692
tp693
Rp694
sg51
g0
(g36
g2
Ntp695
Rp696
(dp697
g6
g40
(g41
(S'S1'
p698
I0
I1
tp699
Rp700
(I3
S'|'
p701
NNNI1
I1
I0
tp702
bg47
tp703
Rp704
sg7
Nsg8
Nsg50
Nsg51
Nsbsbsg50
g40
(g54
S'\x00\x00\x00\x00\x00\x00"@'
p705
tp706
Rp707
sg51
g0
(g1
g2
Ntp708
Rp709
(dp710
g6
Nsg7
I4
sg8
g0
(g36
g2
Ntp711
Rp712
(dp713
g6
g40
(g41
(S'S1'
p714
I0
I1
tp715
Rp716
(I3
S'|'
p717
NNNI1
I1
I0
tp718
bg68
tp719
Rp720
sg7
Nsg8
Nsg50
Nsg51
Nsbsg50
g40
(g54
S'\x00\x00\x00\x00\x00\x00\x08@'
p721
tp722
Rp723
sg51
g0
(g1
g2
Ntp724
Rp725
(dp726
g6
Nsg7
I6
sg8
g0
(g36
g2
Ntp727
Rp728
(dp729
g6
g40
(g41
(S'S1'
p730
I0
I1
tp731
Rp732
(I3
S'|'
p733
NNNI1
I1
I0
tp734
bg68
tp735
Rp736
sg7
Nsg8
Nsg50
Nsg51
Nsbsg50
g40
(g54
S'\x00\x00\x00\x00\x00\x00\x1c@'
p737
tp738
Rp739
sg51
g0
(g36
g2
Ntp740
Rp741
(dp742
g6
g40
(g41
(S'S1'
p743
I0
I1
tp744
Rp745
(I3
S'|'
p746
NNNI1
I1
I0
tp747
bg47
tp748
Rp749
sg7
Nsg8
Nsg50
Nsg51
Nsbsbsbsbsg50
g40
(g54
S'\x00\x00\x00\x00\x00\x00\x08@'
p750
tp751
Rp752
sg51
g0
(g1
g2
Ntp753
Rp754
(dp755
g6
Nsg7
I12
sg8
g0
(g1
g2
Ntp756
Rp757
(dp758
g6
Nsg7
I0
sg8
g0
(g36
g2
Ntp759
Rp760
(dp761
g6
g40
(g41
(S'S1'
p762
I0
I1
tp763
Rp764
(I3
S'|'
p765
NNNI1
I1
I0
tp766
bg68
tp767
Rp768
sg7
Nsg8
Nsg50
Nsg51
Nsbsg50
g40
(g54
S'\x00\x00\x00\x00\x00\x00\x18@'
p769
tp770
Rp771
sg51
g0
(g36
g2
Ntp772
Rp773
(dp774
g6
g40
(g41
(S'S1'
p775
I0
I1
tp776
Rp777
(I3
S'|'
p778
NNNI1
I1
I0
tp779
bg284
tp780
Rp781
sg7
Nsg8
Nsg50
Nsg51
Nsbsbsg50
g40
(g54
S'\x00\x00\x00\x00\x00\x00\x10@'
p782
tp783
Rp784
sg51
g0
(g36
g2
Ntp785
Rp786
(dp787
g6
g40
(g41
(S'S1'
p788
I0
I1
tp789
Rp790
(I3
S'|'
p791
NNNI1
I1
I0
tp792
bg47
tp793
Rp794
sg7
Nsg8
Nsg50
Nsg51
Nsbsbsbsbsbsg50
g40
(g54
S'\x00\x00\x00\x00\x00\x00"@'
p795
tp796
Rp797
sg51
g0
(g1
g2
Ntp798
Rp799
(dp800
g6
Nsg7
I8
sg8
g0
(g36
g2
Ntp801
Rp802
(dp803
g6
g40
(g41
(S'S1'
p804
I0
I1
tp805
Rp806
(I3
S'|'
p807
NNNI1
I1
I0
tp808
bg68
tp809
Rp810
sg7
Nsg8
Nsg50
Nsg51
Nsbsg50
g40
(g54
S'\x00\x00\x00\x00\x00\x00 @'
p811
tp812
Rp813
sg51
g0
(g1
g2
Ntp814
Rp815
(dp816
g6
Nsg7
I5
sg8
g0
(g1
g2
Ntp817
Rp818
(dp819
g6
Nsg7
I7
sg8
g0
(g1
g2
Ntp820
Rp821
(dp822
g6
Nsg7
I1
sg8
g0
(g1
g2
Ntp823
Rp824
(dp825
g6
Nsg7
I2
sg8
g0
(g36
g2
Ntp826
Rp827
(dp828
g6
g40
(g41
(S'S1'
p829
I0
I1
tp830
Rp831
(I3
S'|'
p832
NNNI1
I1
I0
tp833
bg298
tp834
Rp835
sg7
Nsg8
Nsg50
Nsg51
Nsbsg50
g40
(g54
S'\x00\x00\x00\x00\x00\x00"@'
p836
tp837
Rp838
sg51
g0
(g36
g2
Ntp839
Rp840
(dp841
g6
g40
(g41
(S'S1'
p842
I0
I1
tp843
Rp844
(I3
S'|'
p845
NNNI1
I1
I0
tp846
bg284
tp847
Rp848
sg7
Nsg8
Nsg50
Nsg51
Nsbsbsg50
g40
(g54
S'\x00\x00\x00\x00\x00\x00&@'
p849
tp850
Rp851
sg51
g0
(g1
g2
Ntp852
Rp853
(dp854
g6
Nsg7
I9
sg8
g0
(g36
g2
Ntp855
Rp856
(dp857
g6
g40
(g41
(S'S1'
p858
I0
I1
tp859
Rp860
(I3
S'|'
p861
NNNI1
I1
I0
tp862
bg47
tp863
Rp864
sg7
Nsg8
Nsg50
Nsg51
Nsbsg50
g40
(g54
S'\x00\x00\x00\x00\x00\x00\x1c@'
p865
tp866
Rp867
sg51
g0
(g1
g2
Ntp868
Rp869
(dp870
g6
Nsg7
I0
sg8
g0
(g36
g2
Ntp871
Rp872
(dp873
g6
g40
(g41
(S'S1'
p874
I0
I1
tp875
Rp876
(I3
S'|'
p877
NNNI1
I1
I0
tp878
bg68
tp879
Rp880
sg7
Nsg8
Nsg50
Nsg51
Nsbsg50
g40
(g54
S'\x00\x00\x00\x00\x00\x00\x14@'
p881
tp882
Rp883
sg51
g0
(g36
g2
Ntp884
Rp885
(dp886
g6
g40
(g41
(S'S1'
p887
I0
I1
tp888
Rp889
(I3
S'|'
p890
NNNI1
I1
I0
tp891
bg284
tp892
Rp893
sg7
Nsg8
Nsg50
Nsg51
Nsbsbsbsbsg50
g40
(g54
S'\x00\x00\x00\x00\x00\x00\x18@'
p894
tp895
Rp896
sg51
g0
(g36
g2
Ntp897
Rp898
(dp899
g6
g40
(g41
(S'S1'
p900
I0
I1
tp901
Rp902
(I3
S'|'
p903
NNNI1
I1
I0
tp904
bg284
tp905
Rp906
sg7
Nsg8
Nsg50
Nsg51
Nsbsbsg50
g40
(g54
S'\x00\x00\x00\x00\x00\x00 @'
p907
tp908
Rp909
sg51
g0
(g1
g2
Ntp910
Rp911
(dp912
g6
Nsg7
I13
sg8
g0
(g1
g2
Ntp913
Rp914
(dp915
g6
Nsg7
I11
sg8
g0
(g1
g2
Ntp916
Rp917
(dp918
g6
Nsg7
I7
sg8
g0
(g36
g2
Ntp919
Rp920
(dp921
g6
g40
(g41
(S'S1'
p922
I0
I1
tp923
Rp924
(I3
S'|'
p925
NNNI1
I1
I0
tp926
bg284
tp927
Rp928
sg7
Nsg8
Nsg50
Nsg51
Nsbsg50
g40
(g54
S'\x00\x00\x00\x00\x00\x00\x14@'
p929
tp930
Rp931
sg51
g0
(g36
g2
Ntp932
Rp933
(dp934
g6
g40
(g41
(S'S1'
p935
I0
I1
tp936
Rp937
(I3
S'|'
p938
NNNI1
I1
I0
tp939
bg82
tp940
Rp941
sg7
Nsg8
Nsg50
Nsg51
Nsbsbsg50
g40
(g54
S'\x00\x00\x00\x00\x00\x00$@'
p942
tp943
Rp944
sg51
g0
(g1
g2
Ntp945
Rp946
(dp947
g6
Nsg7
I10
sg8
g0
(g36
g2
Ntp948
Rp949
(dp950
g6
g40
(g41
(S'S1'
p951
I0
I1
tp952
Rp953
(I3
S'|'
p954
NNNI1
I1
I0
tp955
bg284
tp956
Rp957
sg7
Nsg8
Nsg50
Nsg51
Nsbsg50
g40
(g54
S'\x00\x00\x00\x00\x00\x00\x1c@'
p958
tp959
Rp960
sg51
g0
(g1
g2
Ntp961
Rp962
(dp963
g6
Nsg7
I9
sg8
g0
(g36
g2
Ntp964
Rp965
(dp966
g6
g40
(g41
(S'S1'
p967
I0
I1
tp968
Rp969
(I3
S'|'
p970
NNNI1
I1
I0
tp971
bg284
tp972
Rp973
sg7
Nsg8
Nsg50
Nsg51
Nsbsg50
g40
(g54
S'\x00\x00\x00\x00\x00\x00 @'
p974
tp975
Rp976
sg51
g0
(g1
g2
Ntp977
Rp978
(dp979
g6
Nsg7
I15
sg8
g0
(g36
g2
Ntp980
Rp981
(dp982
g6
g40
(g41
(S'S1'
p983
I0
I1
tp984
Rp985
(I3
S'|'
p986
NNNI1
I1
I0
tp987
bg68
tp988
Rp989
sg7
Nsg8
Nsg50
Nsg51
Nsbsg50
g40
(g54
S'\x00\x00\x00\x00\x00\x00 @'
p990
tp991
Rp992
sg51
g0
(g1
g2
Ntp993
Rp994
(dp995
g6
Nsg7
I12
sg8
g0
(g36
g2
Ntp996
Rp997
(dp998
g6
g40
(g41
(S'S1'
p999
I0
I1
tp1000
Rp1001
(I3
S'|'
p1002
NNNI1
I1
I0
tp1003
bg284
tp1004
Rp1005
sg7
Nsg8
Nsg50
Nsg51
Nsbsg50
g40
(g54
S'\x00\x00\x00\x00\x00\x00\x14@'
p1006
tp1007
Rp1008
sg51
g0
(g1
g2
Ntp1009
Rp1010
(dp1011
g6
Nsg7
I6
sg8
g0
(g36
g2
Ntp1012
Rp1013
(dp1014
g6
g40
(g41
(S'S1'
p1015
I0
I1
tp1016
Rp1017
(I3
S'|'
p1018
NNNI1
I1
I0
tp1019
bg68
tp1020
Rp1021
sg7
Nsg8
Nsg50
Nsg51
Nsbsg50
g40
(g54
S'\x00\x00\x00\x00\x00\x00"@'
p1022
tp1023
Rp1024
sg51
g0
(g36
g2
Ntp1025
Rp1026
(dp1027
g6
g40
(g41
(S'S1'
p1028
I0
I1
tp1029
Rp1030
(I3
S'|'
p1031
NNNI1
I1
I0
tp1032
bg284
tp1033
Rp1034
sg7
Nsg8
Nsg50
Nsg51
Nsbsbsbsbsbsbsbsg50
g40
(g54
S'\x00\x00\x00\x00\x00\x00\x1c@'
p1035
tp1036
Rp1037
sg51
g0
(g1
g2
Ntp1038
Rp1039
(dp1040
g6
Nsg7
I0
sg8
g0
(g1
g2
Ntp1041
Rp1042
(dp1043
g6
Nsg7
I1
sg8
g0
(g36
g2
Ntp1044
Rp1045
(dp1046
g6
g40
(g41
(S'S1'
p1047
I0
I1
tp1048
Rp1049
(I3
S'|'
p1050
NNNI1
I1
I0
tp1051
bg284
tp1052
Rp1053
sg7
Nsg8
Nsg50
Nsg51
Nsbsg50
g40
(g54
S'\x00\x00\x00\x00\x00\x00 @'
p1054
tp1055
Rp1056
sg51
g0
(g36
g2
Ntp1057
Rp1058
(dp1059
g6
g40
(g41
(S'S1'
p1060
I0
I1
tp1061
Rp1062
(I3
S'|'
p1063
NNNI1
I1
I0
tp1064
bg298
tp1065
Rp1066
sg7
Nsg8
Nsg50
Nsg51
Nsbsbsg50
g40
(g54
S'\x00\x00\x00\x00\x00\x00\x18@'
p1067
tp1068
Rp1069
sg51
g0
(g36
g2
Ntp1070
Rp1071
(dp1072
g6
g40
(g41
(S'S1'
p1073
I0
I1
tp1074
Rp1075
(I3
S'|'
p1076
NNNI1
I1
I0
tp1077
bg47
tp1078
Rp1079
sg7
Nsg8
Nsg50
Nsg51
Nsbsbsbsbsbsbsg50
g40
(g54
S'\x00\x00\x00\x00\x00\x00\x14@'
p1080
tp1081
Rp1082
sg51
g0
(g1
g2
Ntp1083
Rp1084
(dp1085
g6
Nsg7
I13
sg8
g0
(g1
g2
Ntp1086
Rp1087
(dp1088
g6
Nsg7
I2
sg8
g0
(g36
g2
Ntp1089
Rp1090
(dp1091
g6
g40
(g41
(S'S1'
p1092
I0
I1
tp1093
Rp1094
(I3
S'|'
p1095
NNNI1
I1
I0
tp1096
bg298
tp1097
Rp1098
sg7
Nsg8
Nsg50
Nsg51
Nsbsg50
g40
(g54
S'\x00\x00\x00\x00\x00\x00\x18@'
p1099
tp1100
Rp1101
sg51
g0
(g1
g2
Ntp1102
Rp1103
(dp1104
g6
Nsg7
I0
sg8
g0
(g36
g2
Ntp1105
Rp1106
(dp1107
g6
g40
(g41
(S'S1'
p1108
I0
I1
tp1109
Rp1110
(I3
S'|'
p1111
NNNI1
I1
I0
tp1112
bg47
tp1113
Rp1114
sg7
Nsg8
Nsg50
Nsg51
Nsbsg50
g40
(g54
S'\x00\x00\x00\x00\x00\x00\x18@'
p1115
tp1116
Rp1117
sg51
g0
(g36
g2
Ntp1118
Rp1119
(dp1120
g6
g40
(g41
(S'S1'
p1121
I0
I1
tp1122
Rp1123
(I3
S'|'
p1124
NNNI1
I1
I0
tp1125
bg68
tp1126
Rp1127
sg7
Nsg8
Nsg50
Nsg51
Nsbsbsbsg50
g40
(g54
S'\x00\x00\x00\x00\x00\x00 @'
p1128
tp1129
Rp1130
sg51
g0
(g1
g2
Ntp1131
Rp1132
(dp1133
g6
Nsg7
I15
sg8
g0
(g36
g2
Ntp1134
Rp1135
(dp1136
g6
g40
(g41
(S'S1'
p1137
I0
I1
tp1138
Rp1139
(I3
S'|'
p1140
NNNI1
I1
I0
tp1141
bg47
tp1142
Rp1143
sg7
Nsg8
Nsg50
Nsg51
Nsbsg50
g40
(g54
S'\x00\x00\x00\x00\x00\x00\x1c@'
p1144
tp1145
Rp1146
sg51
g0
(g1
g2
Ntp1147
Rp1148
(dp1149
g6
Nsg7
I5
sg8
g0
(g36
g2
Ntp1150
Rp1151
(dp1152
g6
g40
(g41
(S'S1'
p1153
I0
I1
tp1154
Rp1155
(I3
S'|'
p1156
NNNI1
I1
I0
tp1157
bg298
tp1158
Rp1159
sg7
Nsg8
Nsg50
Nsg51
Nsbsg50
g40
(g54
S'\x00\x00\x00\x00\x00\x00 @'
p1160
tp1161
Rp1162
sg51
g0
(g36
g2
Ntp1163
Rp1164
(dp1165
g6
g40
(g41
(S'S1'
p1166
I0
I1
tp1167
Rp1168
(I3
S'|'
p1169
NNNI1
I1
I0
tp1170
bg47
tp1171
Rp1172
sg7
Nsg8
Nsg50
Nsg51
Nsbsbsbsbsbsbsbsg50
g40
(g54
S'\x00\x00\x00\x00\x00\x00\x18@'
p1173
tp1174
Rp1175
sg51
g0
(g1
g2
Ntp1176
Rp1177
(dp1178
g6
Nsg7
I9
sg8
g0
(g1
g2
Ntp1179
Rp1180
(dp1181
g6
Nsg7
I1
sg8
g0
(g36
g2
Ntp1182
Rp1183
(dp1184
g6
g40
(g41
(S'S1'
p1185
I0
I1
tp1186
Rp1187
(I3
S'|'
p1188
NNNI1
I1
I0
tp1189
bg298
tp1190
Rp1191
sg7
Nsg8
Nsg50
Nsg51
Nsbsg50
g40
(g54
S'\x00\x00\x00\x00\x00\x00 @'
p1192
tp1193
Rp1194
sg51
g0
(g36
g2
Ntp1195
Rp1196
(dp1197
g6
g40
(g41
(S'S1'
p1198
I0
I1
tp1199
Rp1200
(I3
S'|'
p1201
NNNI1
I1
I0
tp1202
bg47
tp1203
Rp1204
sg7
Nsg8
Nsg50
Nsg51
Nsbsbsg50
g40
(g54
S'\x00\x00\x00\x00\x00\x00"@'
p1205
tp1206
Rp1207
sg51
g0
(g1
g2
Ntp1208
Rp1209
(dp1210
g6
Nsg7
I7
sg8
g0
(g36
g2
Ntp1211
Rp1212
(dp1213
g6
g40
(g41
(S'S1'
p1214
I0
I1
tp1215
Rp1216
(I3
S'|'
p1217
NNNI1
I1
I0
tp1218
bg325
tp1219
Rp1220
sg7
Nsg8
Nsg50
Nsg51
Nsbsg50
g40
(g54
S'\x00\x00\x00\x00\x00\x00\x18@'
p1221
tp1222
Rp1223
sg51
g0
(g36
g2
Ntp1224
Rp1225
(dp1226
g6
g40
(g41
(S'S1'
p1227
I0
I1
tp1228
Rp1229
(I3
S'|'
p1230
NNNI1
I1
I0
tp1231
bg82
tp1232
Rp1233
sg7
Nsg8
Nsg50
Nsg51
Nsbsbsbsbsbsg50
g40
(g54
S'\x00\x00\x00\x00\x00\x00\x18@'
p1234
tp1235
Rp1236
sg51
g0
(g1
g2
Ntp1237
Rp1238
(dp1239
g6
Nsg7
I12
sg8
g0
(g1
g2
Ntp1240
Rp1241
(dp1242
g6
Nsg7
I5
sg8
g0
(g1
g2
Ntp1243
Rp1244
(dp1245
g6
Nsg7
I13
sg8
g0
(g1
g2
Ntp1246
Rp1247
(dp1248
g6
Nsg7
I1
sg8
g0
(g1
g2
Ntp1249
Rp1250
(dp1251
g6
Nsg7
I13
sg8
g0
(g1
g2
Ntp1252
Rp1253
(dp1254
g6
Nsg7
I0
sg8
g0
(g36
g2
Ntp1255
Rp1256
(dp1257
g6
g40
(g41
(S'S1'
p1258
I0
I1
tp1259
Rp1260
(I3
S'|'
p1261
NNNI1
I1
I0
tp1262
bg298
tp1263
Rp1264
sg7
Nsg8
Nsg50
Nsg51
Nsbsg50
g40
(g54
S'\x00\x00\x00\x00\x00\x00\x14@'
p1265
tp1266
Rp1267
sg51
g0
(g36
g2
Ntp1268
Rp1269
(dp1270
g6
g40
(g41
(S'S1'
p1271
I0
I1
tp1272
Rp1273
(I3
S'|'
p1274
NNNI1
I1
I0
tp1275
bg325
tp1276
Rp1277
sg7
Nsg8
Nsg50
Nsg51
Nsbsbsg50
g40
(g54
S'\x00\x00\x00\x00\x00\x00"@'
p1278
tp1279
Rp1280
sg51
g0
(g1
g2
Ntp1281
Rp1282
(dp1283
g6
Nsg7
I2
sg8
g0
(g36
g2
Ntp1284
Rp1285
(dp1286
g6
g40
(g41
(S'S1'
p1287
I0
I1
tp1288
Rp1289
(I3
S'|'
p1290
NNNI1
I1
I0
tp1291
bg284
tp1292
Rp1293
sg7
Nsg8
Nsg50
Nsg51
Nsbsg50
g40
(g54
S'\x00\x00\x00\x00\x00\x00\x18@'
p1294
tp1295
Rp1296
sg51
g0
(g1
g2
Ntp1297
Rp1298
(dp1299
g6
Nsg7
I0
sg8
g0
(g36
g2
Ntp1300
Rp1301
(dp1302
g6
g40
(g41
(S'S1'
p1303
I0
I1
tp1304
Rp1305
(I3
S'|'
p1306
NNNI1
I1
I0
tp1307
bg298
tp1308
Rp1309
sg7
Nsg8
Nsg50
Nsg51
Nsbsg50
g40
(g54
S'\x00\x00\x00\x00\x00\x00\x1c@'
p1310
tp1311
Rp1312
sg51
g0
(g36
g2
Ntp1313
Rp1314
(dp1315
g6
g40
(g41
(S'S1'
p1316
I0
I1
tp1317
Rp1318
(I3
S'|'
p1319
NNNI1
I1
I0
tp1320
bg284
tp1321
Rp1322
sg7
Nsg8
Nsg50
Nsg51
Nsbsbsbsbsg50
g40
(g54
S'\x00\x00\x00\x00\x00\x00"@'
p1323
tp1324
Rp1325
sg51
g0
(g1
g2
Ntp1326
Rp1327
(dp1328
g6
Nsg7
I3
sg8
g0
(g36
g2
Ntp1329
Rp1330
(dp1331
g6
g40
(g41
(S'S1'
p1332
I0
I1
tp1333
Rp1334
(I3
S'|'
p1335
NNNI1
I1
I0
tp1336
bg47
tp1337
Rp1338
sg7
Nsg8
Nsg50
Nsg51
Nsbsg50
g40
(g54
S'\x00\x00\x00\x00\x00\x00\x18@'
p1339
tp1340
Rp1341
sg51
g0
(g1
g2
Ntp1342
Rp1343
(dp1344
g6
Nsg7
I0
sg8
g0
(g36
g2
Ntp1345
Rp1346
(dp1347
g6
g40
(g41
(S'S1'
p1348
I0
I1
tp1349
Rp1350
(I3
S'|'
p1351
NNNI1
I1
I0
tp1352
bg298
tp1353
Rp1354
sg7
Nsg8
Nsg50
Nsg51
Nsbsg50
g40
(g54
S'\x00\x00\x00\x00\x00\x00\x10@'
p1355
tp1356
Rp1357
sg51
g0
(g36
g2
Ntp1358
Rp1359
(dp1360
g6
g40
(g41
(S'S1'
p1361
I0
I1
tp1362
Rp1363
(I3
S'|'
p1364
NNNI1
I1
I0
tp1365
bg284
tp1366
Rp1367
sg7
Nsg8
Nsg50
Nsg51
Nsbsbsbsbsg50
g40
(g54
S'\x00\x00\x00\x00\x00\x00\x1c@'
p1368
tp1369
Rp1370
sg51
g0
(g1
g2
Ntp1371
Rp1372
(dp1373
g6
Nsg7
I4
sg8
g0
(g36
g2
Ntp1374
Rp1375
(dp1376
g6
g40
(g41
(S'S1'
p1377
I0
I1
tp1378
Rp1379
(I3
S'|'
p1380
NNNI1
I1
I0
tp1381
bg284
tp1382
Rp1383
sg7
Nsg8
Nsg50
Nsg51
Nsbsg50
g40
(g54
S'\x00\x00\x00\x00\x00\x00"@'
p1384
tp1385
Rp1386
sg51
g0
(g36
g2
Ntp1387
Rp1388
(dp1389
g6
g40
(g41
(S'S1'
p1390
I0
I1
tp1391
Rp1392
(I3
S'|'
p1393
NNNI1
I1
I0
tp1394
bg325
tp1395
Rp1396
sg7
Nsg8
Nsg50
Nsg51
Nsbsbsbsg50
g40
(g54
S'\x00\x00\x00\x00\x00\x00"@'
p1397
tp1398
Rp1399
sg51
g0
(g1
g2
Ntp1400
Rp1401
(dp1402
g6
Nsg7
I11
sg8
g0
(g1
g2
Ntp1403
Rp1404
(dp1405
g6
Nsg7
I8
sg8
g0
(g1
g2
Ntp1406
Rp1407
(dp1408
g6
Nsg7
I14
sg8
g0
(g1
g2
Ntp1409
Rp1410
(dp1411
g6
Nsg7
I15
sg8
g0
(g1
g2
Ntp1412
Rp1413
(dp1414
g6
Nsg7
I0
sg8
g0
(g36
g2
Ntp1415
Rp1416
(dp1417
g6
g40
(g41
(S'S1'
p1418
I0
I1
tp1419
Rp1420
(I3
S'|'
p1421
NNNI1
I1
I0
tp1422
bg82
tp1423
Rp1424
sg7
Nsg8
Nsg50
Nsg51
Nsbsg50
g40
(g54
S'\x00\x00\x00\x00\x00\x00\x1c@'
p1425
tp1426
Rp1427
sg51
g0
(g36
g2
Ntp1428
Rp1429
(dp1430
g6
g40
(g41
(S'S1'
p1431
I0
I1
tp1432
Rp1433
(I3
S'|'
p1434
NNNI1
I1
I0
tp1435
bg68
tp1436
Rp1437
sg7
Nsg8
Nsg50
Nsg51
Nsbsbsg50
g40
(g54
S'\x00\x00\x00\x00\x00\x00"@'
p1438
tp1439
Rp1440
sg51
g0
(g1
g2
Ntp1441
Rp1442
(dp1443
g6
Nsg7
I9
sg8
g0
(g36
g2
Ntp1444
Rp1445
(dp1446
g6
g40
(g41
(S'S1'
p1447
I0
I1
tp1448
Rp1449
(I3
S'|'
p1450
NNNI1
I1
I0
tp1451
bg298
tp1452
Rp1453
sg7
Nsg8
Nsg50
Nsg51
Nsbsg50
g40
(g54
S'\x00\x00\x00\x00\x00\x00\x1c@'
p1454
tp1455
Rp1456
sg51
g0
(g36
g2
Ntp1457
Rp1458
(dp1459
g6
g40
(g41
(S'S1'
p1460
I0
I1
tp1461
Rp1462
(I3
S'|'
p1463
NNNI1
I1
I0
tp1464
bg82
tp1465
Rp1466
sg7
Nsg8
Nsg50
Nsg51
Nsbsbsbsg50
g40
(g54
S'\x00\x00\x00\x00\x00\x00\x14@'
p1467
tp1468
Rp1469
sg51
g0
(g36
g2
Ntp1470
Rp1471
(dp1472
g6
g40
(g41
(S'S1'
p1473
I0
I1
tp1474
Rp1475
(I3
S'|'
p1476
NNNI1
I1
I0
tp1477
bg82
tp1478
Rp1479
sg7
Nsg8
Nsg50
Nsg51
Nsbsbsg50
g40
(g54
S'\x00\x00\x00\x00\x00\x00\x18@'
p1480
tp1481
Rp1482
sg51
g0
(g1
g2
Ntp1483
Rp1484
(dp1485
g6
Nsg7
I7
sg8
g0
(g1
g2
Ntp1486
Rp1487
(dp1488
g6
Nsg7
I6
sg8
g0
(g36
g2
Ntp1489
Rp1490
(dp1491
g6
g40
(g41
(S'S1'
p1492
I0
I1
tp1493
Rp1494
(I3
S'|'
p1495
NNNI1
I1
I0
tp1496
bg298
tp1497
Rp1498
sg7
Nsg8
Nsg50
Nsg51
Nsbsg50
g40
(g54
S'\x00\x00\x00\x00\x00\x00\x1c@'
p1499
tp1500
Rp1501
sg51
g0
(g1
g2
Ntp1502
Rp1503
(dp1504
g6
Nsg7
I12
sg8
g0
(g1
g2
Ntp1505
Rp1506
(dp1507
g6
Nsg7
I4
sg8
g0
(g36
g2
Ntp1508
Rp1509
(dp1510
g6
g40
(g41
(S'S1'
p1511
I0
I1
tp1512
Rp1513
(I3
S'|'
p1514
NNNI1
I1
I0
tp1515
bg298
tp1516
Rp1517
sg7
Nsg8
Nsg50
Nsg51
Nsbsg50
g40
(g54
S'\x00\x00\x00\x00\x00\x00 @'
p1518
tp1519
Rp1520
sg51
g0
(g36
g2
Ntp1521
Rp1522
(dp1523
g6
g40
(g41
(S'S1'
p1524
I0
I1
tp1525
Rp1526
(I3
S'|'
p1527
NNNI1
I1
I0
tp1528
bg82
tp1529
Rp1530
sg7
Nsg8
Nsg50
Nsg51
Nsbsbsg50
g40
(g54
S'\x00\x00\x00\x00\x00\x00\x18@'
p1531
tp1532
Rp1533
sg51
g0
(g1
g2
Ntp1534
Rp1535
(dp1536
g6
Nsg7
I4
sg8
g0
(g36
g2
Ntp1537
Rp1538
(dp1539
g6
g40
(g41
(S'S1'
p1540
I0
I1
tp1541
Rp1542
(I3
S'|'
p1543
NNNI1
I1
I0
tp1544
bg47
tp1545
Rp1546
sg7
Nsg8
Nsg50
Nsg51
Nsbsg50
g40
(g54
S'\x00\x00\x00\x00\x00\x00\x1c@'
p1547
tp1548
Rp1549
sg51
g0
(g1
g2
Ntp1550
Rp1551
(dp1552
g6
Nsg7
I9
sg8
g0
(g36
g2
Ntp1553
Rp1554
(dp1555
g6
g40
(g41
(S'S1'
p1556
I0
I1
tp1557
Rp1558
(I3
S'|'
p1559
NNNI1
I1
I0
tp1560
bg298
tp1561
Rp1562
sg7
Nsg8
Nsg50
Nsg51
Nsbsg50
g40
(g54
S'\x00\x00\x00\x00\x00\x00 @'
p1563
tp1564
Rp1565
sg51
g0
(g36
g2
Ntp1566
Rp1567
(dp1568
g6
g40
(g41
(S'S1'
p1569
I0
I1
tp1570
Rp1571
(I3
S'|'
p1572
NNNI1
I1
I0
tp1573
bg47
tp1574
Rp1575
sg7
Nsg8
Nsg50
Nsg51
Nsbsbsbsbsbsg50
g40
(g54
S'\x00\x00\x00\x00\x00\x00\x14@'
p1576
tp1577
Rp1578
sg51
g0
(g1
g2
Ntp1579
Rp1580
(dp1581
g6
Nsg7
I6
sg8
g0
(g1
g2
Ntp1582
Rp1583
(dp1584
g6
Nsg7
I5
sg8
g0
(g36
g2
Ntp1585
Rp1586
(dp1587
g6
g40
(g41
(S'S1'
p1588
I0
I1
tp1589
Rp1590
(I3
S'|'
p1591
NNNI1
I1
I0
tp1592
bg284
tp1593
Rp1594
sg7
Nsg8
Nsg50
Nsg51
Nsbsg50
g40
(g54
S'\x00\x00\x00\x00\x00\x00 @'
p1595
tp1596
Rp1597
sg51
g0
(g36
g2
Ntp1598
Rp1599
(dp1600
g6
g40
(g41
(S'S1'
p1601
I0
I1
tp1602
Rp1603
(I3
S'|'
p1604
NNNI1
I1
I0
tp1605
bg82
tp1606
Rp1607
sg7
Nsg8
Nsg50
Nsg51
Nsbsbsg50
g40
(g54
S'\x00\x00\x00\x00\x00\x00\x14@'
p1608
tp1609
Rp1610
sg51
g0
(g1
g2
Ntp1611
Rp1612
(dp1613
g6
Nsg7
I0
sg8
g0
(g36
g2
Ntp1614
Rp1615
(dp1616
g6
g40
(g41
(S'S1'
p1617
I0
I1
tp1618
Rp1619
(I3
S'|'
p1620
NNNI1
I1
I0
tp1621
bg298
tp1622
Rp1623
sg7
Nsg8
Nsg50
Nsg51
Nsbsg50
g40
(g54
S'\x00\x00\x00\x00\x00\x00\x1c@'
p1624
tp1625
Rp1626
sg51
g0
(g36
g2
Ntp1627
Rp1628
(dp1629
g6
g40
(g41
(S'S1'
p1630
I0
I1
tp1631
Rp1632
(I3
S'|'
p1633
NNNI1
I1
I0
tp1634
bg47
tp1635
Rp1636
sg7
Nsg8
Nsg50
Nsg51
Nsbsbsbsbsbsg50
g40
(g54
S'\x00\x00\x00\x00\x00\x00 @'
p1637
tp1638
Rp1639
sg51
g0
(g1
g2
Ntp1640
Rp1641
(dp1642
g6
Nsg7
I7
sg8
g0
(g36
g2
Ntp1643
Rp1644
(dp1645
g6
g40
(g41
(S'S1'
p1646
I0
I1
tp1647
Rp1648
(I3
S'|'
p1649
NNNI1
I1
I0
tp1650
bg298
tp1651
Rp1652
sg7
Nsg8
Nsg50
Nsg51
Nsbsg50
g40
(g54
S'\x00\x00\x00\x00\x00\x00\x1c@'
p1653
tp1654
Rp1655
sg51
g0
(g1
g2
Ntp1656
Rp1657
(dp1658
g6
Nsg7
I13
sg8
g0
(g1
g2
Ntp1659
Rp1660
(dp1661
g6
Nsg7
I15
sg8
g0
(g36
g2
Ntp1662
Rp1663
(dp1664
g6
g40
(g41
(S'S1'
p1665
I0
I1
tp1666
Rp1667
(I3
S'|'
p1668
NNNI1
I1
I0
tp1669
bg298
tp1670
Rp1671
sg7
Nsg8
Nsg50
Nsg51
Nsbsg50
g40
(g54
S'\x00\x00\x00\x00\x00\x00 @'
p1672
tp1673
Rp1674
sg51
g0
(g1
g2
Ntp1675
Rp1676
(dp1677
g6
Nsg7
I1
sg8
g0
(g36
g2
Ntp1678
Rp1679
(dp1680
g6
g40
(g41
(S'S1'
p1681
I0
I1
tp1682
Rp1683
(I3
S'|'
p1684
NNNI1
I1
I0
tp1685
bg284
tp1686
Rp1687
sg7
Nsg8
Nsg50
Nsg51
Nsbsg50
g40
(g54
S'\x00\x00\x00\x00\x00\x00"@'
p1688
tp1689
Rp1690
sg51
g0
(g36
g2
Ntp1691
Rp1692
(dp1693
g6
g40
(g41
(S'S1'
p1694
I0
I1
tp1695
Rp1696
(I3
S'|'
p1697
NNNI1
I1
I0
tp1698
bg325
tp1699
Rp1700
sg7
Nsg8
Nsg50
Nsg51
Nsbsbsbsg50
g40
(g54
S'\x00\x00\x00\x00\x00\x00 @'
p1701
tp1702
Rp1703
sg51
g0
(g36
g2
Ntp1704
Rp1705
(dp1706
g6
g40
(g41
(S'S1'
p1707
I0
I1
tp1708
Rp1709
(I3
S'|'
p1710
NNNI1
I1
I0
tp1711
bg284
tp1712
Rp1713
sg7
Nsg8
Nsg50
Nsg51
Nsbsbsbsbsbsg50
g40
(g54
S'\x00\x00\x00\x00\x00\x00\x10@'
p1714
tp1715
Rp1716
sg51
g0
(g1
g2
Ntp1717
Rp1718
(dp1719
g6
Nsg7
I14
sg8
g0
(g1
g2
Ntp1720
Rp1721
(dp1722
g6
Nsg7
I5
sg8
g0
(g1
g2
Ntp1723
Rp1724
(dp1725
g6
Nsg7
I7
sg8
g0
(g36
g2
Ntp1726
Rp1727
(dp1728
g6
g40
(g41
(S'S1'
p1729
I0
I1
tp1730
Rp1731
(I3
S'|'
p1732
NNNI1
I1
I0
tp1733
bg47
tp1734
Rp1735
sg7
Nsg8
Nsg50
Nsg51
Nsbsg50
g40
(g54
S'\x00\x00\x00\x00\x00\x00\x14@'
p1736
tp1737
Rp1738
sg51
g0
(g1
g2
Ntp1739
Rp1740
(dp1741
g6
Nsg7
I0
sg8
g0
(g36
g2
Ntp1742
Rp1743
(dp1744
g6
g40
(g41
(S'S1'
p1745
I0
I1
tp1746
Rp1747
(I3
S'|'
p1748
NNNI1
I1
I0
tp1749
bg47
tp1750
Rp1751
sg7
Nsg8
Nsg50
Nsg51
Nsbsg50
g40
(g54
S'\x00\x00\x00\x00\x00\x00\x18@'
p1752
tp1753
Rp1754
sg51
g0
(g1
g2
Ntp1755
Rp1756
(dp1757
g6
Nsg7
I0
sg8
g0
(g36
g2
Ntp1758
Rp1759
(dp1760
g6
g40
(g41
(S'S1'
p1761
I0
I1
tp1762
Rp1763
(I3
S'|'
p1764
NNNI1
I1
I0
tp1765
bg298
tp1766
Rp1767
sg7
Nsg8
Nsg50
Nsg51
Nsbsg50
g40
(g54
S'\x00\x00\x00\x00\x00\x00\x10@'
p1768
tp1769
Rp1770
sg51
g0
(g36
g2
Ntp1771
Rp1772
(dp1773
g6
g40
(g41
(S'S1'
p1774
I0
I1
tp1775
Rp1776
(I3
S'|'
p1777
NNNI1
I1
I0
tp1778
bg68
tp1779
Rp1780
sg7
Nsg8
Nsg50
Nsg51
Nsbsbsbsbsg50
g40
(g54
S'\x00\x00\x00\x00\x00\x00 @'
p1781
tp1782
Rp1783
sg51
g0
(g1
g2
Ntp1784
Rp1785
(dp1786
g6
Nsg7
I8
sg8
g0
(g1
g2
Ntp1787
Rp1788
(dp1789
g6
Nsg7
I6
sg8
g0
(g1
g2
Ntp1790
Rp1791
(dp1792
g6
Nsg7
I0
sg8
g0
(g36
g2
Ntp1793
Rp1794
(dp1795
g6
g40
(g41
(S'S1'
p1796
I0
I1
tp1797
Rp1798
(I3
S'|'
p1799
NNNI1
I1
I0
tp1800
bg298
tp1801
Rp1802
sg7
Nsg8
Nsg50
Nsg51
Nsbsg50
g40
(g54
S'\x00\x00\x00\x00\x00\x00\x14@'
p1803
tp1804
Rp1805
sg51
g0
(g36
g2
Ntp1806
Rp1807
(dp1808
g6
g40
(g41
(S'S1'
p1809
I0
I1
tp1810
Rp1811
(I3
S'|'
p1812
NNNI1
I1
I0
tp1813
bg68
tp1814
Rp1815
sg7
Nsg8
Nsg50
Nsg51
Nsbsbsg50
g40
(g54
S'\x00\x00\x00\x00\x00\x00\x1c@'
p1816
tp1817
Rp1818
sg51
g0
(g36
g2
Ntp1819
Rp1820
(dp1821
g6
g40
(g41
(S'S1'
p1822
I0
I1
tp1823
Rp1824
(I3
S'|'
p1825
NNNI1
I1
I0
tp1826
bg284
tp1827
Rp1828
sg7
Nsg8
Nsg50
Nsg51
Nsbsbsg50
g40
(g54
S'\x00\x00\x00\x00\x00\x00\x1c@'
p1829
tp1830
Rp1831
sg51
g0
(g1
g2
Ntp1832
Rp1833
(dp1834
g6
Nsg7
I10
sg8
g0
(g1
g2
Ntp1835
Rp1836
(dp1837
g6
Nsg7
I1
sg8
g0
(g36
g2
Ntp1838
Rp1839
(dp1840
g6
g40
(g41
(S'S1'
p1841
I0
I1
tp1842
Rp1843
(I3
S'|'
p1844
NNNI1
I1
I0
tp1845
bg284
tp1846
Rp1847
sg7
Nsg8
Nsg50
Nsg51
Nsbsg50
g40
(g54
S'\x00\x00\x00\x00\x00\x00 @'
p1848
tp1849
Rp1850
sg51
g0
(g36
g2
Ntp1851
Rp1852
(dp1853
g6
g40
(g41
(S'S1'
p1854
I0
I1
tp1855
Rp1856
(I3
S'|'
p1857
NNNI1
I1
I0
tp1858
bg47
tp1859
Rp1860
sg7
Nsg8
Nsg50
Nsg51
Nsbsbsg50
g40
(g54
S'\x00\x00\x00\x00\x00\x00\x18@'
p1861
tp1862
Rp1863
sg51
g0
(g1
g2
Ntp1864
Rp1865
(dp1866
g6
Nsg7
I6
sg8
g0
(g36
g2
Ntp1867
Rp1868
(dp1869
g6
g40
(g41
(S'S1'
p1870
I0
I1
tp1871
Rp1872
(I3
S'|'
p1873
NNNI1
I1
I0
tp1874
bg298
tp1875
Rp1876
sg7
Nsg8
Nsg50
Nsg51
Nsbsg50
g40
(g54
S'\x00\x00\x00\x00\x00\x00\x14@'
p1877
tp1878
Rp1879
sg51
g0
(g36
g2
Ntp1880
Rp1881
(dp1882
g6
g40
(g41
(S'S1'
p1883
I0
I1
tp1884
Rp1885
(I3
S'|'
p1886
NNNI1
I1
I0
tp1887
bg47
tp1888
Rp1889
sg7
Nsg8
Nsg50
Nsg51
Nsbsbsbsbsbsg50
g40
(g54
S'\x00\x00\x00\x00\x00\x00\x14@'
p1890
tp1891
Rp1892
sg51
g0
(g1
g2
Ntp1893
Rp1894
(dp1895
g6
Nsg7
I5
sg8
g0
(g1
g2
Ntp1896
Rp1897
(dp1898
g6
Nsg7
I8
sg8
g0
(g1
g2
Ntp1899
Rp1900
(dp1901
g6
Nsg7
I6
sg8
g0
(g36
g2
Ntp1902
Rp1903
(dp1904
g6
g40
(g41
(S'S1'
p1905
I0
I1
tp1906
Rp1907
(I3
S'|'
p1908
NNNI1
I1
I0
tp1909
bg298
tp1910
Rp1911
sg7
Nsg8
Nsg50
Nsg51
Nsbsg50
g40
(g54
S'\x00\x00\x00\x00\x00\x00\x1c@'
p1912
tp1913
Rp1914
sg51
g0
(g1
g2
Ntp1915
Rp1916
(dp1917
g6
Nsg7
I9
sg8
g0
(g1
g2
Ntp1918
Rp1919
(dp1920
g6
Nsg7
I5
sg8
g0
(g1
g2
Ntp1921
Rp1922
(dp1923
g6
Nsg7
I1
sg8
g0
(g36
g2
Ntp1924
Rp1925
(dp1926
g6
g40
(g41
(S'S1'
p1927
I0
I1
tp1928
Rp1929
(I3
S'|'
p1930
NNNI1
I1
I0
tp1931
bg298
tp1932
Rp1933
sg7
Nsg8
Nsg50
Nsg51
Nsbsg50
g40
(g54
S'\x00\x00\x00\x00\x00\x00$@'
p1934
tp1935
Rp1936
sg51
g0
(g36
g2
Ntp1937
Rp1938
(dp1939
g6
g40
(g41
(S'S1'
p1940
I0
I1
tp1941
Rp1942
(I3
S'|'
p1943
NNNI1
I1
I0
tp1944
bg47
tp1945
Rp1946
sg7
Nsg8
Nsg50
Nsg51
Nsbsbsg50
g40
(g54
S'\x00\x00\x00\x00\x00\x00"@'
p1947
tp1948
Rp1949
sg51
g0
(g36
g2
Ntp1950
Rp1951
(dp1952
g6
g40
(g41
(S'S1'
p1953
I0
I1
tp1954
Rp1955
(I3
S'|'
p1956
NNNI1
I1
I0
tp1957
bg298
tp1958
Rp1959
sg7
Nsg8
Nsg50
Nsg51
Nsbsbsg50
g40
(g54
S'\x00\x00\x00\x00\x00\x00\x1c@'
p1960
tp1961
Rp1962
sg51
g0
(g36
g2
Ntp1963
Rp1964
(dp1965
g6
g40
(g41
(S'S1'
p1966
I0
I1
tp1967
Rp1968
(I3
S'|'
p1969
NNNI1
I1
I0
tp1970
bg47
tp1971
Rp1972
sg7
Nsg8
Nsg50
Nsg51
Nsbsbsbsg50
g40
(g54
S'\x00\x00\x00\x00\x00\x00 @'
p1973
tp1974
Rp1975
sg51
g0
(g1
g2
Ntp1976
Rp1977
(dp1978
g6
Nsg7
I9
sg8
g0
(g1
g2
Ntp1979
Rp1980
(dp1981
g6
Nsg7
I8
sg8
g0
(g1
g2
Ntp1982
Rp1983
(dp1984
g6
Nsg7
I6
sg8
g0
(g36
g2
Ntp1985
Rp1986
(dp1987
g6
g40
(g41
(S'S1'
p1988
I0
I1
tp1989
Rp1990
(I3
S'|'
p1991
NNNI1
I1
I0
tp1992
bg298
tp1993
Rp1994
sg7
Nsg8
Nsg50
Nsg51
Nsbsg50
g40
(g54
S'\x00\x00\x00\x00\x00\x00\x1c@'
p1995
tp1996
Rp1997
sg51
g0
(g1
g2
Ntp1998
Rp1999
(dp2000
g6
Nsg7
I3
sg8
g0
(g1
g2
Ntp2001
Rp2002
(dp2003
g6
Nsg7
I4
sg8
g0
(g1
g2
Ntp2004
Rp2005
(dp2006
g6
Nsg7
I2
sg8
g0
(g1
g2
Ntp2007
Rp2008
(dp2009
g6
Nsg7
I9
sg8
g0
(g36
g2
Ntp2010
Rp2011
(dp2012
g6
g40
(g41
(S'S1'
p2013
I0
I1
tp2014
Rp2015
(I3
S'|'
p2016
NNNI1
I1
I0
tp2017
bg298
tp2018
Rp2019
sg7
Nsg8
Nsg50
Nsg51
Nsbsg50
g40
(g54
S'\x00\x00\x00\x00\x00\x00"@'
p2020
tp2021
Rp2022
sg51
g0
(g36
g2
Ntp2023
Rp2024
(dp2025
g6
g40
(g41
(S'S1'
p2026
I0
I1
tp2027
Rp2028
(I3
S'|'
p2029
NNNI1
I1
I0
tp2030
bg47
tp2031
Rp2032
sg7
Nsg8
Nsg50
Nsg51
Nsbsbsg50
g40
(g54
S'\x00\x00\x00\x00\x00\x00\x18@'
p2033
tp2034
Rp2035
sg51
g0
(g36
g2
Ntp2036
Rp2037
(dp2038
g6
g40
(g41
(S'S1'
p2039
I0
I1
tp2040
Rp2041
(I3
S'|'
p2042
NNNI1
I1
I0
tp2043
bg47
tp2044
Rp2045
sg7
Nsg8
Nsg50
Nsg51
Nsbsbsg50
g40
(g54
S'\x00\x00\x00\x00\x00\x00\x08@'
p2046
tp2047
Rp2048
sg51
g0
(g1
g2
Ntp2049
Rp2050
(dp2051
g6
Nsg7
I6
sg8
g0
(g36
g2
Ntp2052
Rp2053
(dp2054
g6
g40
(g41
(S'S1'
p2055
I0
I1
tp2056
Rp2057
(I3
S'|'
p2058
NNNI1
I1
I0
tp2059
bg298
tp2060
Rp2061
sg7
Nsg8
Nsg50
Nsg51
Nsbsg50
g40
(g54
S'\x00\x00\x00\x00\x00\x00\x18@'
p2062
tp2063
Rp2064
sg51
g0
(g36
g2
Ntp2065
Rp2066
(dp2067
g6
g40
(g41
(S'S1'
p2068
I0
I1
tp2069
Rp2070
(I3
S'|'
p2071
NNNI1
I1
I0
tp2072
bg47
tp2073
Rp2074
sg7
Nsg8
Nsg50
Nsg51
Nsbsbsbsg50
g40
(g54
S'\x00\x00\x00\x00\x00\x00\x14@'
p2075
tp2076
Rp2077
sg51
g0
(g36
g2
Ntp2078
Rp2079
(dp2080
g6
g40
(g41
(S'S1'
p2081
I0
I1
tp2082
Rp2083
(I3
S'|'
p2084
NNNI1
I1
I0
tp2085
bg298
tp2086
Rp2087
sg7
Nsg8
Nsg50
Nsg51
Nsbsbsbsg50
g40
(g54
S'\x00\x00\x00\x00\x00\x00\x10@'
p2088
tp2089
Rp2090
sg51
g0
(g36
g2
Ntp2091
Rp2092
(dp2093
g6
g40
(g41
(S'S1'
p2094
I0
I1
tp2095
Rp2096
(I3
S'|'
p2097
NNNI1
I1
I0
tp2098
bg47
tp2099
Rp2100
sg7
Nsg8
Nsg50
Nsg51
Nsbsbsg50
g40
(g54
S'\x00\x00\x00\x00\x00\x00\x1c@'
p2101
tp2102
Rp2103
sg51
g0
(g1
g2
Ntp2104
Rp2105
(dp2106
g6
Nsg7
I6
sg8
g0
(g1
g2
Ntp2107
Rp2108
(dp2109
g6
Nsg7
I2
sg8
g0
(g36
g2
Ntp2110
Rp2111
(dp2112
g6
g40
(g41
(S'S1'
p2113
I0
I1
tp2114
Rp2115
(I3
S'|'
p2116
NNNI1
I1
I0
tp2117
bg47
tp2118
Rp2119
sg7
Nsg8
Nsg50
Nsg51
Nsbsg50
g40
(g54
S'\x00\x00\x00\x00\x00\x00\x18@'
p2120
tp2121
Rp2122
sg51
g0
(g1
g2
Ntp2123
Rp2124
(dp2125
g6
Nsg7
I1
sg8
g0
(g36
g2
Ntp2126
Rp2127
(dp2128
g6
g40
(g41
(S'S1'
p2129
I0
I1
tp2130
Rp2131
(I3
S'|'
p2132
NNNI1
I1
I0
tp2133
bg298
tp2134
Rp2135
sg7
Nsg8
Nsg50
Nsg51
Nsbsg50
g40
(g54
S'\x00\x00\x00\x00\x00\x00\x14@'
p2136
tp2137
Rp2138
sg51
g0
(g36
g2
Ntp2139
Rp2140
(dp2141
g6
g40
(g41
(S'S1'
p2142
I0
I1
tp2143
Rp2144
(I3
S'|'
p2145
NNNI1
I1
I0
tp2146
bg47
tp2147
Rp2148
sg7
Nsg8
Nsg50
Nsg51
Nsbsbsbsg50
g40
(g54
S'\x00\x00\x00\x00\x00\x00 @'
p2149
tp2150
Rp2151
sg51
g0
(g1
g2
Ntp2152
Rp2153
(dp2154
g6
Nsg7
I11
sg8
g0
(g1
g2
Ntp2155
Rp2156
(dp2157
g6
Nsg7
I8
sg8
g0
(g1
g2
Ntp2158
Rp2159
(dp2160
g6
Nsg7
I1
sg8
g0
(g36
g2
Ntp2161
Rp2162
(dp2163
g6
g40
(g41
(S'S1'
p2164
I0
I1
tp2165
Rp2166
(I3
S'|'
p2167
NNNI1
I1
I0
tp2168
bg47
tp2169
Rp2170
sg7
Nsg8
Nsg50
Nsg51
Nsbsg50
g40
(g54
S'\x00\x00\x00\x00\x00\x00\x14@'
p2171
tp2172
Rp2173
sg51
g0
(g36
g2
Ntp2174
Rp2175
(dp2176
g6
g40
(g41
(S'S1'
p2177
I0
I1
tp2178
Rp2179
(I3
S'|'
p2180
NNNI1
I1
I0
tp2181
bg298
tp2182
Rp2183
sg7
Nsg8
Nsg50
Nsg51
Nsbsbsg50
g40
(g54
S'\x00\x00\x00\x00\x00\x00\x1c@'
p2184
tp2185
Rp2186
sg51
g0
(g36
g2
Ntp2187
Rp2188
(dp2189
g6
g40
(g41
(S'S1'
p2190
I0
I1
tp2191
Rp2192
(I3
S'|'
p2193
NNNI1
I1
I0
tp2194
bg47
tp2195
Rp2196
sg7
Nsg8
Nsg50
Nsg51
Nsbsbsg50
g40
(g54
S'\x00\x00\x00\x00\x00\x00 @'
p2197
tp2198
Rp2199
sg51
g0
(g36
g2
Ntp2200
Rp2201
(dp2202
g6
g40
(g41
(S'S1'
p2203
I0
I1
tp2204
Rp2205
(I3
S'|'
p2206
NNNI1
I1
I0
tp2207
bg298
tp2208
Rp2209
sg7
Nsg8
Nsg50
Nsg51
Nsbsbsbsbsbsg50
g40
(g54
S'\x00\x00\x00\x00\x00\x00 @'
p2210
tp2211
Rp2212
sg51
g0
(g1
g2
Ntp2213
Rp2214
(dp2215
g6
Nsg7
I11
sg8
g0
(g1
g2
Ntp2216
Rp2217
(dp2218
g6
Nsg7
I2
sg8
g0
(g1
g2
Ntp2219
Rp2220
(dp2221
g6
Nsg7
I8
sg8
g0
(g1
g2
Ntp2222
Rp2223
(dp2224
g6
Nsg7
I1
sg8
g0
(g36
g2
Ntp2225
Rp2226
(dp2227
g6
g40
(g41
(S'S1'
p2228
I0
I1
tp2229
Rp2230
(I3
S'|'
p2231
NNNI1
I1
I0
tp2232
bg284
tp2233
Rp2234
sg7
Nsg8
Nsg50
Nsg51
Nsbsg50
g40
(g54
S'\x00\x00\x00\x00\x00\x00 @'
p2235
tp2236
Rp2237
sg51
g0
(g1
g2
Ntp2238
Rp2239
(dp2240
g6
Nsg7
I1
sg8
g0
(g36
g2
Ntp2241
Rp2242
(dp2243
g6
g40
(g41
(S'S1'
p2244
I0
I1
tp2245
Rp2246
(I3
S'|'
p2247
NNNI1
I1
I0
tp2248
bg82
tp2249
Rp2250
sg7
Nsg8
Nsg50
Nsg51
Nsbsg50
g40
(g54
S'\x00\x00\x00\x00\x00\x00\x18@'
p2251
tp2252
Rp2253
sg51
g0
(g36
g2
Ntp2254
Rp2255
(dp2256
g6
g40
(g41
(S'S1'
p2257
I0
I1
tp2258
Rp2259
(I3
S'|'
p2260
NNNI1
I1
I0
tp2261
bg298
tp2262
Rp2263
sg7
Nsg8
Nsg50
Nsg51
Nsbsbsbsg50
g40
(g54
S'\x00\x00\x00\x00\x00\x00\x18@'
p2264
tp2265
Rp2266
sg51
g0
(g36
g2
Ntp2267
Rp2268
(dp2269
g6
g40
(g41
(S'S1'
p2270
I0
I1
tp2271
Rp2272
(I3
S'|'
p2273
NNNI1
I1
I0
tp2274
bg298
tp2275
Rp2276
sg7
Nsg8
Nsg50
Nsg51
Nsbsbsg50
g40
(g54
S'\x00\x00\x00\x00\x00\x00\x14@'
p2277
tp2278
Rp2279
sg51
g0
(g1
g2
Ntp2280
Rp2281
(dp2282
g6
Nsg7
I3
sg8
g0
(g36
g2
Ntp2283
Rp2284
(dp2285
g6
g40
(g41
(S'S1'
p2286
I0
I1
tp2287
Rp2288
(I3
S'|'
p2289
NNNI1
I1
I0
tp2290
bg47
tp2291
Rp2292
sg7
Nsg8
Nsg50
Nsg51
Nsbsg50
g40
(g54
S'\x00\x00\x00\x00\x00\x00\x14@'
p2293
tp2294
Rp2295
sg51
g0
(g36
g2
Ntp2296
Rp2297
(dp2298
g6
g40
(g41
(S'S1'
p2299
I0
I1
tp2300
Rp2301
(I3
S'|'
p2302
NNNI1
I1
I0
tp2303
bg284
tp2304
Rp2305
sg7
Nsg8
Nsg50
Nsg51
Nsbsbsbsg50
g40
(g54
S'\x00\x00\x00\x00\x00\x00"@'
p2306
tp2307
Rp2308
sg51
g0
(g1
g2
Ntp2309
Rp2310
(dp2311
g6
Nsg7
I9
sg8
g0
(g36
g2
Ntp2312
Rp2313
(dp2314
g6
g40
(g41
(S'S1'
p2315
I0
I1
tp2316
Rp2317
(I3
S'|'
p2318
NNNI1
I1
I0
tp2319
bg298
tp2320
Rp2321
sg7
Nsg8
Nsg50
Nsg51
Nsbsg50
g40
(g54
S'\x00\x00\x00\x00\x00\x00\x18@'
p2322
tp2323
Rp2324
sg51
g0
(g36
g2
Ntp2325
Rp2326
(dp2327
g6
g40
(g41
(S'S1'
p2328
I0
I1
tp2329
Rp2330
(I3
S'|'
p2331
NNNI1
I1
I0
tp2332
bg47
tp2333
Rp2334
sg7
Nsg8
Nsg50
Nsg51
Nsbsbsbsbsbsbsbsg50
g40
(g54
S'\x00\x00\x00\x00\x00\x00\x08@'
p2335
tp2336
Rp2337
sg51
g0
(g1
g2
Ntp2338
Rp2339
(dp2340
g6
Nsg7
I8
sg8
g0
(g1
g2
Ntp2341
Rp2342
(dp2343
g6
Nsg7
I7
sg8
g0
(g1
g2
Ntp2344
Rp2345
(dp2346
g6
Nsg7
I15
sg8
g0
(g1
g2
Ntp2347
Rp2348
(dp2349
g6
Nsg7
I12
sg8
g0
(g1
g2
Ntp2350
Rp2351
(dp2352
g6
Nsg7
I9
sg8
g0
(g1
g2
Ntp2353
Rp2354
(dp2355
g6
Nsg7
I1
sg8
g0
(g36
g2
Ntp2356
Rp2357
(dp2358
g6
g40
(g41
(S'S1'
p2359
I0
I1
tp2360
Rp2361
(I3
S'|'
p2362
NNNI1
I1
I0
tp2363
bg284
tp2364
Rp2365
sg7
Nsg8
Nsg50
Nsg51
Nsbsg50
g40
(g54
S'\x00\x00\x00\x00\x00\x00\x08@'
p2366
tp2367
Rp2368
sg51
g0
(g36
g2
Ntp2369
Rp2370
(dp2371
g6
g40
(g41
(S'S1'
p2372
I0
I1
tp2373
Rp2374
(I3
S'|'
p2375
NNNI1
I1
I0
tp2376
bg68
tp2377
Rp2378
sg7
Nsg8
Nsg50
Nsg51
Nsbsbsg50
g40
(g54
S'\x00\x00\x00\x00\x00\x00\x1c@'
p2379
tp2380
Rp2381
sg51
g0
(g36
g2
Ntp2382
Rp2383
(dp2384
g6
g40
(g41
(S'S1'
p2385
I0
I1
tp2386
Rp2387
(I3
S'|'
p2388
NNNI1
I1
I0
tp2389
bg284
tp2390
Rp2391
sg7
Nsg8
Nsg50
Nsg51
Nsbsbsg50
g40
(g54
S'\x00\x00\x00\x00\x00\x00\xf0?'
p2392
tp2393
Rp2394
sg51
g0
(g36
g2
Ntp2395
Rp2396
(dp2397
g6
g40
(g41
(S'S1'
p2398
I0
I1
tp2399
Rp2400
(I3
S'|'
p2401
NNNI1
I1
I0
tp2402
bg82
tp2403
Rp2404
sg7
Nsg8
Nsg50
Nsg51
Nsbsbsg50
g40
(g54
S'\x00\x00\x00\x00\x00\x00$@'
p2405
tp2406
Rp2407
sg51
g0
(g1
g2
Ntp2408
Rp2409
(dp2410
g6
Nsg7
I14
sg8
g0
(g1
g2
Ntp2411
Rp2412
(dp2413
g6
Nsg7
I9
sg8
g0
(g1
g2
Ntp2414
Rp2415
(dp2416
g6
Nsg7
I2
sg8
g0
(g36
g2
Ntp2417
Rp2418
(dp2419
g6
g40
(g41
(S'S1'
p2420
I0
I1
tp2421
Rp2422
(I3
S'|'
p2423
NNNI1
I1
I0
tp2424
bg284
tp2425
Rp2426
sg7
Nsg8
Nsg50
Nsg51
Nsbsg50
g40
(g54
S'\x00\x00\x00\x00\x00\x00\x1c@'
p2427
tp2428
Rp2429
sg51
g0
(g36
g2
Ntp2430
Rp2431
(dp2432
g6
g40
(g41
(S'S1'
p2433
I0
I1
tp2434
Rp2435
(I3
S'|'
p2436
NNNI1
I1
I0
tp2437
bg82
tp2438
Rp2439
sg7
Nsg8
Nsg50
Nsg51
Nsbsbsg50
g40
(g54
S'\x00\x00\x00\x00\x00\x00&@'
p2440
tp2441
Rp2442
sg51
g0
(g1
g2
Ntp2443
Rp2444
(dp2445
g6
Nsg7
I11
sg8
g0
(g36
g2
Ntp2446
Rp2447
(dp2448
g6
g40
(g41
(S'S1'
p2449
I0
I1
tp2450
Rp2451
(I3
S'|'
p2452
NNNI1
I1
I0
tp2453
bg284
tp2454
Rp2455
sg7
Nsg8
Nsg50
Nsg51
Nsbsg50
g40
(g54
S'\x00\x00\x00\x00\x00\x00&@'
p2456
tp2457
Rp2458
sg51
g0
(g36
g2
Ntp2459
Rp2460
(dp2461
g6
g40
(g41
(S'S1'
p2462
I0
I1
tp2463
Rp2464
(I3
S'|'
p2465
NNNI1
I1
I0
tp2466
bg68
tp2467
Rp2468
sg7
Nsg8
Nsg50
Nsg51
Nsbsbsbsg50
g40
(g54
S'\x00\x00\x00\x00\x00\x00\x14@'
p2469
tp2470
Rp2471
sg51
g0
(g1
g2
Ntp2472
Rp2473
(dp2474
g6
Nsg7
I5
sg8
g0
(g1
g2
Ntp2475
Rp2476
(dp2477
g6
Nsg7
I7
sg8
g0
(g36
g2
Ntp2478
Rp2479
(dp2480
g6
g40
(g41
(S'S1'
p2481
I0
I1
tp2482
Rp2483
(I3
S'|'
p2484
NNNI1
I1
I0
tp2485
bg47
tp2486
Rp2487
sg7
Nsg8
Nsg50
Nsg51
Nsbsg50
g40
(g54
S'\x00\x00\x00\x00\x00\x00\x1c@'
p2488
tp2489
Rp2490
sg51
g0
(g36
g2
Ntp2491
Rp2492
(dp2493
g6
g40
(g41
(S'S1'
p2494
I0
I1
tp2495
Rp2496
(I3
S'|'
p2497
NNNI1
I1
I0
tp2498
bg284
tp2499
Rp2500
sg7
Nsg8
Nsg50
Nsg51
Nsbsbsg50
g40
(g54
S'\x00\x00\x00\x00\x00\x00 @'
p2501
tp2502
Rp2503
sg51
g0
(g1
g2
Ntp2504
Rp2505
(dp2506
g6
Nsg7
I8
sg8
g0
(g36
g2
Ntp2507
Rp2508
(dp2509
g6
g40
(g41
(S'S1'
p2510
I0
I1
tp2511
Rp2512
(I3
S'|'
p2513
NNNI1
I1
I0
tp2514
bg82
tp2515
Rp2516
sg7
Nsg8
Nsg50
Nsg51
Nsbsg50
g40
(g54
S'\x00\x00\x00\x00\x00\x00$@'
p2517
tp2518
Rp2519
sg51
g0
(g1
g2
Ntp2520
Rp2521
(dp2522
g6
Nsg7
I6
sg8
g0
(g36
g2
Ntp2523
Rp2524
(dp2525
g6
g40
(g41
(S'S1'
p2526
I0
I1
tp2527
Rp2528
(I3
S'|'
p2529
NNNI1
I1
I0
tp2530
bg82
tp2531
Rp2532
sg7
Nsg8
Nsg50
Nsg51
Nsbsg50
g40
(g54
S'\x00\x00\x00\x00\x00\x00 @'
p2533
tp2534
Rp2535
sg51
g0
(g36
g2
Ntp2536
Rp2537
(dp2538
g6
g40
(g41
(S'S1'
p2539
I0
I1
tp2540
Rp2541
(I3
S'|'
p2542
NNNI1
I1
I0
tp2543
bg284
tp2544
Rp2545
sg7
Nsg8
Nsg50
Nsg51
Nsbsbsbsbsbsbsg50
g40
(g54
S'\x00\x00\x00\x00\x00\x00\x18@'
p2546
tp2547
Rp2548
sg51
g0
(g1
g2
Ntp2549
Rp2550
(dp2551
g6
Nsg7
I8
sg8
g0
(g1
g2
Ntp2552
Rp2553
(dp2554
g6
Nsg7
I14
sg8
g0
(g36
g2
Ntp2555
Rp2556
(dp2557
g6
g40
(g41
(S'S1'
p2558
I0
I1
tp2559
Rp2560
(I3
S'|'
p2561
NNNI1
I1
I0
tp2562
bg68
tp2563
Rp2564
sg7
Nsg8
Nsg50
Nsg51
Nsbsg50
g40
(g54
S'\x00\x00\x00\x00\x00\x00\x14@'
p2565
tp2566
Rp2567
sg51
g0
(g1
g2
Ntp2568
Rp2569
(dp2570
g6
Nsg7
I0
sg8
g0
(g36
g2
Ntp2571
Rp2572
(dp2573
g6
g40
(g41
(S'S1'
p2574
I0
I1
tp2575
Rp2576
(I3
S'|'
p2577
NNNI1
I1
I0
tp2578
bg284
tp2579
Rp2580
sg7
Nsg8
Nsg50
Nsg51
Nsbsg50
g40
(g54
S'\x00\x00\x00\x00\x00\x00\x00@'
p2581
tp2582
Rp2583
sg51
g0
(g36
g2
Ntp2584
Rp2585
(dp2586
g6
g40
(g41
(S'S1'
p2587
I0
I1
tp2588
Rp2589
(I3
S'|'
p2590
NNNI1
I1
I0
tp2591
bg82
tp2592
Rp2593
sg7
Nsg8
Nsg50
Nsg51
Nsbsbsbsg50
g40
(g54
S'\x00\x00\x00\x00\x00\x00\x18@'
p2594
tp2595
Rp2596
sg51
g0
(g36
g2
Ntp2597
Rp2598
(dp2599
g6
g40
(g41
(S'S1'
p2600
I0
I1
tp2601
Rp2602
(I3
S'|'
p2603
NNNI1
I1
I0
tp2604
bg284
tp2605
Rp2606
sg7
Nsg8
Nsg50
Nsg51
Nsbsbsbsg50
g40
(g54
S'\x00\x00\x00\x00\x00\x00\x14@'
p2607
tp2608
Rp2609
sg51
g0
(g1
g2
Ntp2610
Rp2611
(dp2612
g6
Nsg7
I3
sg8
g0
(g1
g2
Ntp2613
Rp2614
(dp2615
g6
Nsg7
I15
sg8
g0
(g36
g2
Ntp2616
Rp2617
(dp2618
g6
g40
(g41
(S'S1'
p2619
I0
I1
tp2620
Rp2621
(I3
S'|'
p2622
NNNI1
I1
I0
tp2623
bg47
tp2624
Rp2625
sg7
Nsg8
Nsg50
Nsg51
Nsbsg50
g40
(g54
S'\x00\x00\x00\x00\x00\x00 @'
p2626
tp2627
Rp2628
sg51
g0
(g1
g2
Ntp2629
Rp2630
(dp2631
g6
Nsg7
I1
sg8
g0
(g36
g2
Ntp2632
Rp2633
(dp2634
g6
g40
(g41
(S'S1'
p2635
I0
I1
tp2636
Rp2637
(I3
S'|'
p2638
NNNI1
I1
I0
tp2639
bg325
tp2640
Rp2641
sg7
Nsg8
Nsg50
Nsg51
Nsbsg50
g40
(g54
S'\x00\x00\x00\x00\x00\x00\x1c@'
p2642
tp2643
Rp2644
sg51
g0
(g1
g2
Ntp2645
Rp2646
(dp2647
g6
Nsg7
I1
sg8
g0
(g36
g2
Ntp2648
Rp2649
(dp2650
g6
g40
(g41
(S'S1'
p2651
I0
I1
tp2652
Rp2653
(I3
S'|'
p2654
NNNI1
I1
I0
tp2655
bg298
tp2656
Rp2657
sg7
Nsg8
Nsg50
Nsg51
Nsbsg50
g40
(g54
S'\x00\x00\x00\x00\x00\x00\x18@'
p2658
tp2659
Rp2660
sg51
g0
(g36
g2
Ntp2661
Rp2662
(dp2663
g6
g40
(g41
(S'S1'
p2664
I0
I1
tp2665
Rp2666
(I3
S'|'
p2667
NNNI1
I1
I0
tp2668
bg47
tp2669
Rp2670
sg7
Nsg8
Nsg50
Nsg51
Nsbsbsbsbsg50
g40
(g54
S'\x00\x00\x00\x00\x00\x00\x00@'
p2671
tp2672
Rp2673
sg51
g0
(g36
g2
Ntp2674
Rp2675
(dp2676
g6
g40
(g41
(S'S1'
p2677
I0
I1
tp2678
Rp2679
(I3
S'|'
p2680
NNNI1
I1
I0
tp2681
bg284
tp2682
Rp2683
sg7
Nsg8
Nsg50
Nsg51
Nsbsbsbsbsg50
g40
(g54
S'\x00\x00\x00\x00\x00\x00\x10@'
p2684
tp2685
Rp2686
sg51
g0
(g1
g2
Ntp2687
Rp2688
(dp2689
g6
Nsg7
I8
sg8
g0
(g1
g2
Ntp2690
Rp2691
(dp2692
g6
Nsg7
I6
sg8
g0
(g1
g2
Ntp2693
Rp2694
(dp2695
g6
Nsg7
I15
sg8
g0
(g36
g2
Ntp2696
Rp2697
(dp2698
g6
g40
(g41
(S'S1'
p2699
I0
I1
tp2700
Rp2701
(I3
S'|'
p2702
NNNI1
I1
I0
tp2703
bg68
tp2704
Rp2705
sg7
Nsg8
Nsg50
Nsg51
Nsbsg50
g40
(g54
S'\x00\x00\x00\x00\x00\x00\x1c@'
p2706
tp2707
Rp2708
sg51
g0
(g36
g2
Ntp2709
Rp2710
(dp2711
g6
g40
(g41
(S'S1'
p2712
I0
I1
tp2713
Rp2714
(I3
S'|'
p2715
NNNI1
I1
I0
tp2716
bg325
tp2717
Rp2718
sg7
Nsg8
Nsg50
Nsg51
Nsbsbsg50
g40
(g54
S'\x00\x00\x00\x00\x00\x00\x18@'
p2719
tp2720
Rp2721
sg51
g0
(g36
g2
Ntp2722
Rp2723
(dp2724
g6
g40
(g41
(S'S1'
p2725
I0
I1
tp2726
Rp2727
(I3
S'|'
p2728
NNNI1
I1
I0
tp2729
bg47
tp2730
Rp2731
sg7
Nsg8
Nsg50
Nsg51
Nsbsbsg50
g40
(g54
S'\x00\x00\x00\x00\x00\x00\x14@'
p2732
tp2733
Rp2734
sg51
g0
(g1
g2
Ntp2735
Rp2736
(dp2737
g6
Nsg7
I14
sg8
g0
(g1
g2
Ntp2738
Rp2739
(dp2740
g6
Nsg7
I2
sg8
g0
(g36
g2
Ntp2741
Rp2742
(dp2743
g6
g40
(g41
(S'S1'
p2744
I0
I1
tp2745
Rp2746
(I3
S'|'
p2747
NNNI1
I1
I0
tp2748
bg284
tp2749
Rp2750
sg7
Nsg8
Nsg50
Nsg51
Nsbsg50
g40
(g54
S'\x00\x00\x00\x00\x00\x00\x10@'
p2751
tp2752
Rp2753
sg51
g0
(g36
g2
Ntp2754
Rp2755
(dp2756
g6
g40
(g41
(S'S1'
p2757
I0
I1
tp2758
Rp2759
(I3
S'|'
p2760
NNNI1
I1
I0
tp2761
bg68
tp2762
Rp2763
sg7
Nsg8
Nsg50
Nsg51
Nsbsbsg50
g40
(g54
S'\x00\x00\x00\x00\x00\x00\x18@'
p2764
tp2765
Rp2766
sg51
g0
(g1
g2
Ntp2767
Rp2768
(dp2769
g6
Nsg7
I10
sg8
g0
(g1
g2
Ntp2770
Rp2771
(dp2772
g6
Nsg7
I6
sg8
g0
(g36
g2
Ntp2773
Rp2774
(dp2775
g6
g40
(g41
(S'S1'
p2776
I0
I1
tp2777
Rp2778
(I3
S'|'
p2779
NNNI1
I1
I0
tp2780
bg47
tp2781
Rp2782
sg7
Nsg8
Nsg50
Nsg51
Nsbsg50
g40
(g54
S'\x00\x00\x00\x00\x00\x00(@'
p2783
tp2784
Rp2785
sg51
g0
(g36
g2
Ntp2786
Rp2787
(dp2788
g6
g40
(g41
(S'S1'
p2789
I0
I1
tp2790
Rp2791
(I3
S'|'
p2792
NNNI1
I1
I0
tp2793
bg325
tp2794
Rp2795
sg7
Nsg8
Nsg50
Nsg51
Nsbsbsg50
g40
(g54
S'\x00\x00\x00\x00\x00\x00\x10@'
p2796
tp2797
Rp2798
sg51
g0
(g1
g2
Ntp2799
Rp2800
(dp2801
g6
Nsg7
I1
sg8
g0
(g1
g2
Ntp2802
Rp2803
(dp2804
g6
Nsg7
I0
sg8
g0
(g36
g2
Ntp2805
Rp2806
(dp2807
g6
g40
(g41
(S'S1'
p2808
I0
I1
tp2809
Rp2810
(I3
S'|'
p2811
NNNI1
I1
I0
tp2812
bg284
tp2813
Rp2814
sg7
Nsg8
Nsg50
Nsg51
Nsbsg50
g40
(g54
S'\x00\x00\x00\x00\x00\x00\x1c@'
p2815
tp2816
Rp2817
sg51
g0
(g1
g2
Ntp2818
Rp2819
(dp2820
g6
Nsg7
I5
sg8
g0
(g36
g2
Ntp2821
Rp2822
(dp2823
g6
g40
(g41
(S'S1'
p2824
I0
I1
tp2825
Rp2826
(I3
S'|'
p2827
NNNI1
I1
I0
tp2828
bg47
tp2829
Rp2830
sg7
Nsg8
Nsg50
Nsg51
Nsbsg50
g40
(g54
S'\x00\x00\x00\x00\x00\x00(@'
p2831
tp2832
Rp2833
sg51
g0
(g36
g2
Ntp2834
Rp2835
(dp2836
g6
g40
(g41
(S'S1'
p2837
I0
I1
tp2838
Rp2839
(I3
S'|'
p2840
NNNI1
I1
I0
tp2841
bg325
tp2842
Rp2843
sg7
Nsg8
Nsg50
Nsg51
Nsbsbsbsg50
g40
(g54
S'\x00\x00\x00\x00\x00\x00"@'
p2844
tp2845
Rp2846
sg51
g0
(g1
g2
Ntp2847
Rp2848
(dp2849
g6
Nsg7
I1
sg8
g0
(g36
g2
Ntp2850
Rp2851
(dp2852
g6
g40
(g41
(S'S1'
p2853
I0
I1
tp2854
Rp2855
(I3
S'|'
p2856
NNNI1
I1
I0
tp2857
bg298
tp2858
Rp2859
sg7
Nsg8
Nsg50
Nsg51
Nsbsg50
g40
(g54
S'\x00\x00\x00\x00\x00\x00\x1c@'
p2860
tp2861
Rp2862
sg51
g0
(g36
g2
Ntp2863
Rp2864
(dp2865
g6
g40
(g41
(S'S1'
p2866
I0
I1
tp2867
Rp2868
(I3
S'|'
p2869
NNNI1
I1
I0
tp2870
bg47
tp2871
Rp2872
sg7
Nsg8
Nsg50
Nsg51
Nsbsbsbsbsbsbsbsg50
g40
(g54
S'\x00\x00\x00\x00\x00\x00\x10@'
p2873
tp2874
Rp2875
sg51
g0
(g1
g2
Ntp2876
Rp2877
(dp2878
g6
Nsg7
I7
sg8
g0
(g1
g2
Ntp2879
Rp2880
(dp2881
g6
Nsg7
I9
sg8
g0
(g1
g2
Ntp2882
Rp2883
(dp2884
g6
Nsg7
I13
sg8
g0
(g1
g2
Ntp2885
Rp2886
(dp2887
g6
Nsg7
I1
sg8
g0
(g36
g2
Ntp2888
Rp2889
(dp2890
g6
g40
(g41
(S'S1'
p2891
I0
I1
tp2892
Rp2893
(I3
S'|'
p2894
NNNI1
I1
I0
tp2895
bg298
tp2896
Rp2897
sg7
Nsg8
Nsg50
Nsg51
Nsbsg50
g40
(g54
S'\x00\x00\x00\x00\x00\x00\x18@'
p2898
tp2899
Rp2900
sg51
g0
(g1
g2
Ntp2901
Rp2902
(dp2903
g6
Nsg7
I5
sg8
g0
(g36
g2
Ntp2904
Rp2905
(dp2906
g6
g40
(g41
(S'S1'
p2907
I0
I1
tp2908
Rp2909
(I3
S'|'
p2910
NNNI1
I1
I0
tp2911
bg47
tp2912
Rp2913
sg7
Nsg8
Nsg50
Nsg51
Nsbsg50
g40
(g54
S'\x00\x00\x00\x00\x00\x00 @'
p2914
tp2915
Rp2916
sg51
g0
(g1
g2
Ntp2917
Rp2918
(dp2919
g6
Nsg7
I0
sg8
g0
(g36
g2
Ntp2920
Rp2921
(dp2922
g6
g40
(g41
(S'S1'
p2923
I0
I1
tp2924
Rp2925
(I3
S'|'
p2926
NNNI1
I1
I0
tp2927
bg284
tp2928
Rp2929
sg7
Nsg8
Nsg50
Nsg51
Nsbsg50
g40
(g54
S'\x00\x00\x00\x00\x00\x00\x10@'
p2930
tp2931
Rp2932
sg51
g0
(g36
g2
Ntp2933
Rp2934
(dp2935
g6
g40
(g41
(S'S1'
p2936
I0
I1
tp2937
Rp2938
(I3
S'|'
p2939
NNNI1
I1
I0
tp2940
bg82
tp2941
Rp2942
sg7
Nsg8
Nsg50
Nsg51
Nsbsbsbsbsg50
g40
(g54
S'\x00\x00\x00\x00\x00\x00"@'
p2943
tp2944
Rp2945
sg51
g0
(g1
g2
Ntp2946
Rp2947
(dp2948
g6
Nsg7
I6
sg8
g0
(g1
g2
Ntp2949
Rp2950
(dp2951
g6
Nsg7
I15
sg8
g0
(g1
g2
Ntp2952
Rp2953
(dp2954
g6
Nsg7
I2
sg8
g0
(g36
g2
Ntp2955
Rp2956
(dp2957
g6
g40
(g41
(S'S1'
p2958
I0
I1
tp2959
Rp2960
(I3
S'|'
p2961
NNNI1
I1
I0
tp2962
bg82
tp2963
Rp2964
sg7
Nsg8
Nsg50
Nsg51
Nsbsg50
g40
(g54
S'\x00\x00\x00\x00\x00\x00\x14@'
p2965
tp2966
Rp2967
sg51
g0
(g36
g2
Ntp2968
Rp2969
(dp2970
g6
g40
(g41
(S'S1'
p2971
I0
I1
tp2972
Rp2973
(I3
S'|'
p2974
NNNI1
I1
I0
tp2975
bg298
tp2976
Rp2977
sg7
Nsg8
Nsg50
Nsg51
Nsbsbsg50
g40
(g54
S'\x00\x00\x00\x00\x00\x00"@'
p2978
tp2979
Rp2980
sg51
g0
(g36
g2
Ntp2981
Rp2982
(dp2983
g6
g40
(g41
(S'S1'
p2984
I0
I1
tp2985
Rp2986
(I3
S'|'
p2987
NNNI1
I1
I0
tp2988
bg298
tp2989
Rp2990
sg7
Nsg8
Nsg50
Nsg51
Nsbsbsg50
g40
(g54
S'\x00\x00\x00\x00\x00\x00\x18@'
p2991
tp2992
Rp2993
sg51
g0
(g1
g2
Ntp2994
Rp2995
(dp2996
g6
Nsg7
I1
sg8
g0
(g36
g2
Ntp2997
Rp2998
(dp2999
g6
g40
(g41
(S'S1'
p3000
I0
I1
tp3001
Rp3002
(I3
S'|'
p3003
NNNI1
I1
I0
tp3004
bg298
tp3005
Rp3006
sg7
Nsg8
Nsg50
Nsg51
Nsbsg50
g40
(g54
S'\x00\x00\x00\x00\x00\x00 @'
p3007
tp3008
Rp3009
sg51
g0
(g36
g2
Ntp3010
Rp3011
(dp3012
g6
g40
(g41
(S'S1'
p3013
I0
I1
tp3014
Rp3015
(I3
S'|'
p3016
NNNI1
I1
I0
tp3017
bg47
tp3018
Rp3019
sg7
Nsg8
Nsg50
Nsg51
Nsbsbsbsbsg50
g40
(g54
S'\x00\x00\x00\x00\x00\x00\x1c@'
p3020
tp3021
Rp3022
sg51
g0
(g1
g2
Ntp3023
Rp3024
(dp3025
g6
Nsg7
I12
sg8
g0
(g1
g2
Ntp3026
Rp3027
(dp3028
g6
Nsg7
I12
sg8
g0
(g1
g2
Ntp3029
Rp3030
(dp3031
g6
Nsg7
I1
sg8
g0
(g36
g2
Ntp3032
Rp3033
(dp3034
g6
g40
(g41
(S'S1'
p3035
I0
I1
tp3036
Rp3037
(I3
S'|'
p3038
NNNI1
I1
I0
tp3039
bg82
tp3040
Rp3041
sg7
Nsg8
Nsg50
Nsg51
Nsbsg50
g40
(g54
S'\x00\x00\x00\x00\x00\x00\x1c@'
p3042
tp3043
Rp3044
sg51
g0
(g36
g2
Ntp3045
Rp3046
(dp3047
g6
g40
(g41
(S'S1'
p3048
I0
I1
tp3049
Rp3050
(I3
S'|'
p3051
NNNI1
I1
I0
tp3052
bg284
tp3053
Rp3054
sg7
Nsg8
Nsg50
Nsg51
Nsbsbsg50
g40
(g54
S'\x00\x00\x00\x00\x00\x00\x10@'
p3055
tp3056
Rp3057
sg51
g0
(g1
g2
Ntp3058
Rp3059
(dp3060
g6
Nsg7
I6
sg8
g0
(g1
g2
Ntp3061
Rp3062
(dp3063
g6
Nsg7
I0
sg8
g0
(g36
g2
Ntp3064
Rp3065
(dp3066
g6
g40
(g41
(S'S1'
p3067
I0
I1
tp3068
Rp3069
(I3
S'|'
p3070
NNNI1
I1
I0
tp3071
bg298
tp3072
Rp3073
sg7
Nsg8
Nsg50
Nsg51
Nsbsg50
g40
(g54
S'\x00\x00\x00\x00\x00\x00\x08@'
p3074
tp3075
Rp3076
sg51
g0
(g36
g2
Ntp3077
Rp3078
(dp3079
g6
g40
(g41
(S'S1'
p3080
I0
I1
tp3081
Rp3082
(I3
S'|'
p3083
NNNI1
I1
I0
tp3084
bg47
tp3085
Rp3086
sg7
Nsg8
Nsg50
Nsg51
Nsbsbsg50
g40
(g54
S'\x00\x00\x00\x00\x00\x00\x18@'
p3087
tp3088
Rp3089
sg51
g0
(g36
g2
Ntp3090
Rp3091
(dp3092
g6
g40
(g41
(S'S1'
p3093
I0
I1
tp3094
Rp3095
(I3
S'|'
p3096
NNNI1
I1
I0
tp3097
bg47
tp3098
Rp3099
sg7
Nsg8
Nsg50
Nsg51
Nsbsbsbsg50
g40
(g54
S'\x00\x00\x00\x00\x00\x00\x08@'
p3100
tp3101
Rp3102
sg51
g0
(g36
g2
Ntp3103
Rp3104
(dp3105
g6
g40
(g41
(S'S1'
p3106
I0
I1
tp3107
Rp3108
(I3
S'|'
p3109
NNNI1
I1
I0
tp3110
bg47
tp3111
Rp3112
sg7
Nsg8
Nsg50
Nsg51
Nsbsbsbsg50
g40
(g54
S'\x00\x00\x00\x00\x00\x00\x18@'
p3113
tp3114
Rp3115
sg51
g0
(g1
g2
Ntp3116
Rp3117
(dp3118
g6
Nsg7
I1
sg8
g0
(g1
g2
Ntp3119
Rp3120
(dp3121
g6
Nsg7
I11
sg8
g0
(g1
g2
Ntp3122
Rp3123
(dp3124
g6
Nsg7
I4
sg8
g0
(g1
g2
Ntp3125
Rp3126
(dp3127
g6
Nsg7
I0
sg8
g0
(g36
g2
Ntp3128
Rp3129
(dp3130
g6
g40
(g41
(S'S1'
p3131
I0
I1
tp3132
Rp3133
(I3
S'|'
p3134
NNNI1
I1
I0
tp3135
bg325
tp3136
Rp3137
sg7
Nsg8
Nsg50
Nsg51
Nsbsg50
g40
(g54
S'\x00\x00\x00\x00\x00\x00\x14@'
p3138
tp3139
Rp3140
sg51
g0
(g1
g2
Ntp3141
Rp3142
(dp3143
g6
Nsg7
I5
sg8
g0
(g36
g2
Ntp3144
Rp3145
(dp3146
g6
g40
(g41
(S'S1'
p3147
I0
I1
tp3148
Rp3149
(I3
S'|'
p3150
NNNI1
I1
I0
tp3151
bg284
tp3152
Rp3153
sg7
Nsg8
Nsg50
Nsg51
Nsbsg50
g40
(g54
S'\x00\x00\x00\x00\x00\x00"@'
p3154
tp3155
Rp3156
sg51
g0
(g36
g2
Ntp3157
Rp3158
(dp3159
g6
g40
(g41
(S'S1'
p3160
I0
I1
tp3161
Rp3162
(I3
S'|'
p3163
NNNI1
I1
I0
tp3164
bg82
tp3165
Rp3166
sg7
Nsg8
Nsg50
Nsg51
Nsbsbsbsg50
g40
(g54
S'\x00\x00\x00\x00\x00\x00\x10@'
p3167
tp3168
Rp3169
sg51
g0
(g36
g2
Ntp3170
Rp3171
(dp3172
g6
g40
(g41
(S'S1'
p3173
I0
I1
tp3174
Rp3175
(I3
S'|'
p3176
NNNI1
I1
I0
tp3177
bg325
tp3178
Rp3179
sg7
Nsg8
Nsg50
Nsg51
Nsbsbsg50
g40
(g54
S'\x00\x00\x00\x00\x00\x00$@'
p3180
tp3181
Rp3182
sg51
g0
(g1
g2
Ntp3183
Rp3184
(dp3185
g6
Nsg7
I7
sg8
g0
(g36
g2
Ntp3186
Rp3187
(dp3188
g6
g40
(g41
(S'S1'
p3189
I0
I1
tp3190
Rp3191
(I3
S'|'
p3192
NNNI1
I1
I0
tp3193
bg298
tp3194
Rp3195
sg7
Nsg8
Nsg50
Nsg51
Nsbsg50
g40
(g54
S'\x00\x00\x00\x00\x00\x00\x14@'
p3196
tp3197
Rp3198
sg51
g0
(g1
g2
Ntp3199
Rp3200
(dp3201
g6
Nsg7
I15
sg8
g0
(g36
g2
Ntp3202
Rp3203
(dp3204
g6
g40
(g41
(S'S1'
p3205
I0
I1
tp3206
Rp3207
(I3
S'|'
p3208
NNNI1
I1
I0
tp3209
bg47
tp3210
Rp3211
sg7
Nsg8
Nsg50
Nsg51
Nsbsg50
g40
(g54
S'\x00\x00\x00\x00\x00\x00"@'
p3212
tp3213
Rp3214
sg51
g0
(g36
g2
Ntp3215
Rp3216
(dp3217
g6
g40
(g41
(S'S1'
p3218
I0
I1
tp3219
Rp3220
(I3
S'|'
p3221
NNNI1
I1
I0
tp3222
bg325
tp3223
Rp3224
sg7
Nsg8
Nsg50
Nsg51
Nsbsbsbsbsg50
g40
(g54
S'\x00\x00\x00\x00\x00\x00\x14@'
p3225
tp3226
Rp3227
sg51
g0
(g1
g2
Ntp3228
Rp3229
(dp3230
g6
Nsg7
I8
sg8
g0
(g1
g2
Ntp3231
Rp3232
(dp3233
g6
Nsg7
I0
sg8
g0
(g36
g2
Ntp3234
Rp3235
(dp3236
g6
g40
(g41
(S'S1'
p3237
I0
I1
tp3238
Rp3239
(I3
S'|'
p3240
NNNI1
I1
I0
tp3241
bg68
tp3242
Rp3243
sg7
Nsg8
Nsg50
Nsg51
Nsbsg50
g40
(g54
S'\x00\x00\x00\x00\x00\x00\x00@'
p3244
tp3245
Rp3246
sg51
g0
(g36
g2
Ntp3247
Rp3248
(dp3249
g6
g40
(g41
(S'S1'
p3250
I0
I1
tp3251
Rp3252
(I3
S'|'
p3253
NNNI1
I1
I0
tp3254
bg284
tp3255
Rp3256
sg7
Nsg8
Nsg50
Nsg51
Nsbsbsg50
g40
(g54
S'\x00\x00\x00\x00\x00\x00\x10@'
p3257
tp3258
Rp3259
sg51
g0
(g1
g2
Ntp3260
Rp3261
(dp3262
g6
Nsg7
I13
sg8
g0
(g36
g2
Ntp3263
Rp3264
(dp3265
g6
g40
(g41
(S'S1'
p3266
I0
I1
tp3267
Rp3268
(I3
S'|'
p3269
NNNI1
I1
I0
tp3270
bg47
tp3271
Rp3272
sg7
Nsg8
Nsg50
Nsg51
Nsbsg50
g40
(g54
S'\x00\x00\x00\x00\x00\x00"@'
p3273
tp3274
Rp3275
sg51
g0
(g1
g2
Ntp3276
Rp3277
(dp3278
g6
Nsg7
I5
sg8
g0
(g36
g2
Ntp3279
Rp3280
(dp3281
g6
g40
(g41
(S'S1'
p3282
I0
I1
tp3283
Rp3284
(I3
S'|'
p3285
NNNI1
I1
I0
tp3286
bg325
tp3287
Rp3288
sg7
Nsg8
Nsg50
Nsg51
Nsbsg50
g40
(g54
S'\x00\x00\x00\x00\x00\x00"@'
p3289
tp3290
Rp3291
sg51
g0
(g36
g2
Ntp3292
Rp3293
(dp3294
g6
g40
(g41
(S'S1'
p3295
I0
I1
tp3296
Rp3297
(I3
S'|'
p3298
NNNI1
I1
I0
tp3299
bg298
tp3300
Rp3301
sg7
Nsg8
Nsg50
Nsg51
Nsbsbsbsbsbsbsbsg50
g40
(g54
S'\x00\x00\x00\x00\x00\x00\x1c@'
p3302
tp3303
Rp3304
sg51
g0
(g1
g2
Ntp3305
Rp3306
(dp3307
g6
Nsg7
I14
sg8
g0
(g1
g2
Ntp3308
Rp3309
(dp3310
g6
Nsg7
I8
sg8
g0
(g1
g2
Ntp3311
Rp3312
(dp3313
g6
Nsg7
I11
sg8
g0
(g1
g2
Ntp3314
Rp3315
(dp3316
g6
Nsg7
I15
sg8
g0
(g36
g2
Ntp3317
Rp3318
(dp3319
g6
g40
(g41
(S'S1'
p3320
I0
I1
tp3321
Rp3322
(I3
S'|'
p3323
NNNI1
I1
I0
tp3324
bg284
tp3325
Rp3326
sg7
Nsg8
Nsg50
Nsg51
Nsbsg50
g40
(g54
S'\x00\x00\x00\x00\x00\x00&@'
p3327
tp3328
Rp3329
sg51
g0
(g36
g2
Ntp3330
Rp3331
(dp3332
g6
g40
(g41
(S'S1'
p3333
I0
I1
tp3334
Rp3335
(I3
S'|'
p3336
NNNI1
I1
I0
tp3337
bg68
tp3338
Rp3339
sg7
Nsg8
Nsg50
Nsg51
Nsbsbsg50
g40
(g54
S'\x00\x00\x00\x00\x00\x00"@'
p3340
tp3341
Rp3342
sg51
g0
(g1
g2
Ntp3343
Rp3344
(dp3345
g6
Nsg7
I0
sg8
g0
(g36
g2
Ntp3346
Rp3347
(dp3348
g6
g40
(g41
(S'S1'
p3349
I0
I1
tp3350
Rp3351
(I3
S'|'
p3352
NNNI1
I1
I0
tp3353
bg82
tp3354
Rp3355
sg7
Nsg8
Nsg50
Nsg51
Nsbsg50
g40
(g54
S'\x00\x00\x00\x00\x00\x00 @'
p3356
tp3357
Rp3358
sg51
g0
(g1
g2
Ntp3359
Rp3360
(dp3361
g6
Nsg7
I1
sg8
g0
(g36
g2
Ntp3362
Rp3363
(dp3364
g6
g40
(g41
(S'S1'
p3365
I0
I1
tp3366
Rp3367
(I3
S'|'
p3368
NNNI1
I1
I0
tp3369
bg68
tp3370
Rp3371
sg7
Nsg8
Nsg50
Nsg51
Nsbsg50
g40
(g54
S'\x00\x00\x00\x00\x00\x00&@'
p3372
tp3373
Rp3374
sg51
g0
(g36
g2
Ntp3375
Rp3376
(dp3377
g6
g40
(g41
(S'S1'
p3378
I0
I1
tp3379
Rp3380
(I3
S'|'
p3381
NNNI1
I1
I0
tp3382
bg298
tp3383
Rp3384
sg7
Nsg8
Nsg50
Nsg51
Nsbsbsbsbsg50
g40
(g54
S'\x00\x00\x00\x00\x00\x00\x1c@'
p3385
tp3386
Rp3387
sg51
g0
(g1
g2
Ntp3388
Rp3389
(dp3390
g6
Nsg7
I10
sg8
g0
(g1
g2
Ntp3391
Rp3392
(dp3393
g6
Nsg7
I7
sg8
g0
(g1
g2
Ntp3394
Rp3395
(dp3396
g6
Nsg7
I11
sg8
g0
(g36
g2
Ntp3397
Rp3398
(dp3399
g6
g40
(g41
(S'S1'
p3400
I0
I1
tp3401
Rp3402
(I3
S'|'
p3403
NNNI1
I1
I0
tp3404
bg82
tp3405
Rp3406
sg7
Nsg8
Nsg50
Nsg51
Nsbsg50
g40
(g54
S'\x00\x00\x00\x00\x00\x00.@'
p3407
tp3408
Rp3409
sg51
g0
(g36
g2
Ntp3410
Rp3411
(dp3412
g6
g40
(g41
(S'S1'
p3413
I0
I1
tp3414
Rp3415
(I3
S'|'
p3416
NNNI1
I1
I0
tp3417
bg284
tp3418
Rp3419
sg7
Nsg8
Nsg50
Nsg51
Nsbsbsg50
g40
(g54
S'\x00\x00\x00\x00\x00\x00\x18@'
p3420
tp3421
Rp3422
sg51
g0
(g1
g2
Ntp3423
Rp3424
(dp3425
g6
Nsg7
I10
sg8
g0
(g1
g2
Ntp3426
Rp3427
(dp3428
g6
Nsg7
I13
sg8
g0
(g1
g2
Ntp3429
Rp3430
(dp3431
g6
Nsg7
I11
sg8
g0
(g1
g2
Ntp3432
Rp3433
(dp3434
g6
Nsg7
I6
sg8
g0
(g36
g2
Ntp3435
Rp3436
(dp3437
g6
g40
(g41
(S'S1'
p3438
I0
I1
tp3439
Rp3440
(I3
S'|'
p3441
NNNI1
I1
I0
tp3442
bg68
tp3443
Rp3444
sg7
Nsg8
Nsg50
Nsg51
Nsbsg50
g40
(g54
S'\x00\x00\x00\x00\x00\x00\x1c@'
p3445
tp3446
Rp3447
sg51
g0
(g1
g2
Ntp3448
Rp3449
(dp3450
g6
Nsg7
I0
sg8
g0
(g36
g2
Ntp3451
Rp3452
(dp3453
g6
g40
(g41
(S'S1'
p3454
I0
I1
tp3455
Rp3456
(I3
S'|'
p3457
NNNI1
I1
I0
tp3458
bg82
tp3459
Rp3460
sg7
Nsg8
Nsg50
Nsg51
Nsbsg50
g40
(g54
S'\x00\x00\x00\x00\x00\x00\x14@'
p3461
tp3462
Rp3463
sg51
g0
(g36
g2
Ntp3464
Rp3465
(dp3466
g6
g40
(g41
(S'S1'
p3467
I0
I1
tp3468
Rp3469
(I3
S'|'
p3470
NNNI1
I1
I0
tp3471
bg68
tp3472
Rp3473
sg7
Nsg8
Nsg50
Nsg51
Nsbsbsbsg50
g40
(g54
S'\x00\x00\x00\x00\x00\x00 @'
p3474
tp3475
Rp3476
sg51
g0
(g36
g2
Ntp3477
Rp3478
(dp3479
g6
g40
(g41
(S'S1'
p3480
I0
I1
tp3481
Rp3482
(I3
S'|'
p3483
NNNI1
I1
I0
tp3484
bg284
tp3485
Rp3486
sg7
Nsg8
Nsg50
Nsg51
Nsbsbsg50
g40
(g54
S'\x00\x00\x00\x00\x00\x00$@'
p3487
tp3488
Rp3489
sg51
g0
(g1
g2
Ntp3490
Rp3491
(dp3492
g6
Nsg7
I11
sg8
g0
(g1
g2
Ntp3493
Rp3494
(dp3495
g6
Nsg7
I0
sg8
g0
(g1
g2
Ntp3496
Rp3497
(dp3498
g6
Nsg7
I2
sg8
g0
(g36
g2
Ntp3499
Rp3500
(dp3501
g6
g40
(g41
(S'S1'
p3502
I0
I1
tp3503
Rp3504
(I3
S'|'
p3505
NNNI1
I1
I0
tp3506
bg68
tp3507
Rp3508
sg7
Nsg8
Nsg50
Nsg51
Nsbsg50
g40
(g54
S'\x00\x00\x00\x00\x00\x00 @'
p3509
tp3510
Rp3511
sg51
g0
(g36
g2
Ntp3512
Rp3513
(dp3514
g6
g40
(g41
(S'S1'
p3515
I0
I1
tp3516
Rp3517
(I3
S'|'
p3518
NNNI1
I1
I0
tp3519
bg82
tp3520
Rp3521
sg7
Nsg8
Nsg50
Nsg51
Nsbsbsg50
g40
(g54
S'\x00\x00\x00\x00\x00\x00\x14@'
p3522
tp3523
Rp3524
sg51
g0
(g36
g2
Ntp3525
Rp3526
(dp3527
g6
g40
(g41
(S'S1'
p3528
I0
I1
tp3529
Rp3530
(I3
S'|'
p3531
NNNI1
I1
I0
tp3532
bg68
tp3533
Rp3534
sg7
Nsg8
Nsg50
Nsg51
Nsbsbsg50
g40
(g54
S'\x00\x00\x00\x00\x00\x00&@'
p3535
tp3536
Rp3537
sg51
g0
(g36
g2
Ntp3538
Rp3539
(dp3540
g6
g40
(g41
(S'S1'
p3541
I0
I1
tp3542
Rp3543
(I3
S'|'
p3544
NNNI1
I1
I0
tp3545
bg82
tp3546
Rp3547
sg7
Nsg8
Nsg50
Nsg51
Nsbsbsbsg50
g40
(g54
S'\x00\x00\x00\x00\x00\x00\x1c@'
p3548
tp3549
Rp3550
sg51
g0
(g1
g2
Ntp3551
Rp3552
(dp3553
g6
Nsg7
I11
sg8
g0
(g1
g2
Ntp3554
Rp3555
(dp3556
g6
Nsg7
I11
sg8
g0
(g36
g2
Ntp3557
Rp3558
(dp3559
g6
g40
(g41
(S'S1'
p3560
I0
I1
tp3561
Rp3562
(I3
S'|'
p3563
NNNI1
I1
I0
tp3564
bg68
tp3565
Rp3566
sg7
Nsg8
Nsg50
Nsg51
Nsbsg50
g40
(g54
S'\x00\x00\x00\x00\x00\x00(@'
p3567
tp3568
Rp3569
sg51
g0
(g36
g2
Ntp3570
Rp3571
(dp3572
g6
g40
(g41
(S'S1'
p3573
I0
I1
tp3574
Rp3575
(I3
S'|'
p3576
NNNI1
I1
I0
tp3577
bg82
tp3578
Rp3579
sg7
Nsg8
Nsg50
Nsg51
Nsbsbsg50
g40
(g54
S'\x00\x00\x00\x00\x00\x00$@'
p3580
tp3581
Rp3582
sg51
g0
(g1
g2
Ntp3583
Rp3584
(dp3585
g6
Nsg7
I6
sg8
g0
(g36
g2
Ntp3586
Rp3587
(dp3588
g6
g40
(g41
(S'S1'
p3589
I0
I1
tp3590
Rp3591
(I3
S'|'
p3592
NNNI1
I1
I0
tp3593
bg68
tp3594
Rp3595
sg7
Nsg8
Nsg50
Nsg51
Nsbsg50
g40
(g54
S'\x00\x00\x00\x00\x00\x00\x1c@'
p3596
tp3597
Rp3598
sg51
g0
(g36
g2
Ntp3599
Rp3600
(dp3601
g6
g40
(g41
(S'S1'
p3602
I0
I1
tp3603
Rp3604
(I3
S'|'
p3605
NNNI1
I1
I0
tp3606
bg82
tp3607
Rp3608
sg7
Nsg8
Nsg50
Nsg51
Nsbsbsbsbsbsg50
g40
(g54
S'\x00\x00\x00\x00\x00\x00\x18@'
p3609
tp3610
Rp3611
sg51
g0
(g1
g2
Ntp3612
Rp3613
(dp3614
g6
Nsg7
I6
sg8
g0
(g1
g2
Ntp3615
Rp3616
(dp3617
g6
Nsg7
I0
sg8
g0
(g36
g2
Ntp3618
Rp3619
(dp3620
g6
g40
(g41
(S'S1'
p3621
I0
I1
tp3622
Rp3623
(I3
S'|'
p3624
NNNI1
I1
I0
tp3625
bg298
tp3626
Rp3627
sg7
Nsg8
Nsg50
Nsg51
Nsbsg50
g40
(g54
S'\x00\x00\x00\x00\x00\x00\x14@'
p3628
tp3629
Rp3630
sg51
g0
(g36
g2
Ntp3631
Rp3632
(dp3633
g6
g40
(g41
(S'S1'
p3634
I0
I1
tp3635
Rp3636
(I3
S'|'
p3637
NNNI1
I1
I0
tp3638
bg82
tp3639
Rp3640
sg7
Nsg8
Nsg50
Nsg51
Nsbsbsg50
g40
(g54
S'\x00\x00\x00\x00\x00\x00\x14@'
p3641
tp3642
Rp3643
sg51
g0
(g36
g2
Ntp3644
Rp3645
(dp3646
g6
g40
(g41
(S'S1'
p3647
I0
I1
tp3648
Rp3649
(I3
S'|'
p3650
NNNI1
I1
I0
tp3651
bg47
tp3652
Rp3653
sg7
Nsg8
Nsg50
Nsg51
Nsbsbsbsbsg50
g40
(g54
S'\x00\x00\x00\x00\x00\x00\x18@'
p3654
tp3655
Rp3656
sg51
g0
(g1
g2
Ntp3657
Rp3658
(dp3659
g6
Nsg7
I11
sg8
g0
(g1
g2
Ntp3660
Rp3661
(dp3662
g6
Nsg7
I12
sg8
g0
(g1
g2
Ntp3663
Rp3664
(dp3665
g6
Nsg7
I6
sg8
g0
(g1
g2
Ntp3666
Rp3667
(dp3668
g6
Nsg7
I7
sg8
g0
(g36
g2
Ntp3669
Rp3670
(dp3671
g6
g40
(g41
(S'S1'
p3672
I0
I1
tp3673
Rp3674
(I3
S'|'
p3675
NNNI1
I1
I0
tp3676
bg82
tp3677
Rp3678
sg7
Nsg8
Nsg50
Nsg51
Nsbsg50
g40
(g54
S'\x00\x00\x00\x00\x00\x00\x14@'
p3679
tp3680
Rp3681
sg51
g0
(g36
g2
Ntp3682
Rp3683
(dp3684
g6
g40
(g41
(S'S1'
p3685
I0
I1
tp3686
Rp3687
(I3
S'|'
p3688
NNNI1
I1
I0
tp3689
bg325
tp3690
Rp3691
sg7
Nsg8
Nsg50
Nsg51
Nsbsbsg50
g40
(g54
S'\x00\x00\x00\x00\x00\x00 @'
p3692
tp3693
Rp3694
sg51
g0
(g1
g2
Ntp3695
Rp3696
(dp3697
g6
Nsg7
I15
sg8
g0
(g1
g2
Ntp3698
Rp3699
(dp3700
g6
Nsg7
I7
sg8
g0
(g1
g2
Ntp3701
Rp3702
(dp3703
g6
Nsg7
I8
sg8
g0
(g1
g2
Ntp3704
Rp3705
(dp3706
g6
Nsg7
I4
sg8
g0
(g36
g2
Ntp3707
Rp3708
(dp3709
g6
g40
(g41
(S'S1'
p3710
I0
I1
tp3711
Rp3712
(I3
S'|'
p3713
NNNI1
I1
I0
tp3714
bg68
tp3715
Rp3716
sg7
Nsg8
Nsg50
Nsg51
Nsbsg50
g40
(g54
S'\x00\x00\x00\x00\x00\x00\x1c@'
p3717
tp3718
Rp3719
sg51
g0
(g1
g2
Ntp3720
Rp3721
(dp3722
g6
Nsg7
I0
sg8
g0
(g1
g2
Ntp3723
Rp3724
(dp3725
g6
Nsg7
I7
sg8
g0
(g36
g2
Ntp3726
Rp3727
(dp3728
g6
g40
(g41
(S'S1'
p3729
I0
I1
tp3730
Rp3731
(I3
S'|'
p3732
NNNI1
I1
I0
tp3733
bg82
tp3734
Rp3735
sg7
Nsg8
Nsg50
Nsg51
Nsbsg50
g40
(g54
S'\x00\x00\x00\x00\x00\x00$@'
p3736
tp3737
Rp3738
sg51
g0
(g36
g2
Ntp3739
Rp3740
(dp3741
g6
g40
(g41
(S'S1'
p3742
I0
I1
tp3743
Rp3744
(I3
S'|'
p3745
NNNI1
I1
I0
tp3746
bg284
tp3747
Rp3748
sg7
Nsg8
Nsg50
Nsg51
Nsbsbsg50
g40
(g54
S'\x00\x00\x00\x00\x00\x00\x18@'
p3749
tp3750
Rp3751
sg51
g0
(g36
g2
Ntp3752
Rp3753
(dp3754
g6
g40
(g41
(S'S1'
p3755
I0
I1
tp3756
Rp3757
(I3
S'|'
p3758
NNNI1
I1
I0
tp3759
bg82
tp3760
Rp3761
sg7
Nsg8
Nsg50
Nsg51
Nsbsbsbsg50
g40
(g54
S'\x00\x00\x00\x00\x00\x00 @'
p3762
tp3763
Rp3764
sg51
g0
(g1
g2
Ntp3765
Rp3766
(dp3767
g6
Nsg7
I11
sg8
g0
(g1
g2
Ntp3768
Rp3769
(dp3770
g6
Nsg7
I6
sg8
g0
(g36
g2
Ntp3771
Rp3772
(dp3773
g6
g40
(g41
(S'S1'
p3774
I0
I1
tp3775
Rp3776
(I3
S'|'
p3777
NNNI1
I1
I0
tp3778
bg82
tp3779
Rp3780
sg7
Nsg8
Nsg50
Nsg51
Nsbsg50
g40
(g54
S'\x00\x00\x00\x00\x00\x00\x1c@'
p3781
tp3782
Rp3783
sg51
g0
(g36
g2
Ntp3784
Rp3785
(dp3786
g6
g40
(g41
(S'S1'
p3787
I0
I1
tp3788
Rp3789
(I3
S'|'
p3790
NNNI1
I1
I0
tp3791
bg284
tp3792
Rp3793
sg7
Nsg8
Nsg50
Nsg51
Nsbsbsg50
g40
(g54
S'\x00\x00\x00\x00\x00\x00*@'
p3794
tp3795
Rp3796
sg51
g0
(g36
g2
Ntp3797
Rp3798
(dp3799
g6
g40
(g41
(S'S1'
p3800
I0
I1
tp3801
Rp3802
(I3
S'|'
p3803
NNNI1
I1
I0
tp3804
bg284
tp3805
Rp3806
sg7
Nsg8
Nsg50
Nsg51
Nsbsbsbsg50
g40
(g54
S'\x00\x00\x00\x00\x00\x00\x14@'
p3807
tp3808
Rp3809
sg51
g0
(g36
g2
Ntp3810
Rp3811
(dp3812
g6
g40
(g41
(S'S1'
p3813
I0
I1
tp3814
Rp3815
(I3
S'|'
p3816
NNNI1
I1
I0
tp3817
bg82
tp3818
Rp3819
sg7
Nsg8
Nsg50
Nsg51
Nsbsbsg50
g40
(g54
S'\x00\x00\x00\x00\x00\x00"@'
p3820
tp3821
Rp3822
sg51
g0
(g1
g2
Ntp3823
Rp3824
(dp3825
g6
Nsg7
I10
sg8
g0
(g36
g2
Ntp3826
Rp3827
(dp3828
g6
g40
(g41
(S'S1'
p3829
I0
I1
tp3830
Rp3831
(I3
S'|'
p3832
NNNI1
I1
I0
tp3833
bg82
tp3834
Rp3835
sg7
Nsg8
Nsg50
Nsg51
Nsbsg50
g40
(g54
S'\x00\x00\x00\x00\x00\x00 @'
p3836
tp3837
Rp3838
sg51
g0
(g1
g2
Ntp3839
Rp3840
(dp3841
g6
Nsg7
I7
sg8
g0
(g1
g2
Ntp3842
Rp3843
(dp3844
g6
Nsg7
I8
sg8
g0
(g36
g2
Ntp3845
Rp3846
(dp3847
g6
g40
(g41
(S'S1'
p3848
I0
I1
tp3849
Rp3850
(I3
S'|'
p3851
NNNI1
I1
I0
tp3852
bg82
tp3853
Rp3854
sg7
Nsg8
Nsg50
Nsg51
Nsbsg50
g40
(g54
S'\x00\x00\x00\x00\x00\x00"@'
p3855
tp3856
Rp3857
sg51
g0
(g36
g2
Ntp3858
Rp3859
(dp3860
g6
g40
(g41
(S'S1'
p3861
I0
I1
tp3862
Rp3863
(I3
S'|'
p3864
NNNI1
I1
I0
tp3865
bg284
tp3866
Rp3867
sg7
Nsg8
Nsg50
Nsg51
Nsbsbsg50
g40
(g54
S'\x00\x00\x00\x00\x00\x00\x18@'
p3868
tp3869
Rp3870
sg51
g0
(g36
g2
Ntp3871
Rp3872
(dp3873
g6
g40
(g41
(S'S1'
p3874
I0
I1
tp3875
Rp3876
(I3
S'|'
p3877
NNNI1
I1
I0
tp3878
bg82
tp3879
Rp3880
sg7
Nsg8
Nsg50
Nsg51
Nsbsbsbsbsbsg50
g40
(g54
S'\x00\x00\x00\x00\x00\x00\x00@'
p3881
tp3882
Rp3883
sg51
g0
(g1
g2
Ntp3884
Rp3885
(dp3886
g6
Nsg7
I15
sg8
g0
(g1
g2
Ntp3887
Rp3888
(dp3889
g6
Nsg7
I0
sg8
g0
(g36
g2
Ntp3890
Rp3891
(dp3892
g6
g40
(g41
(S'S1'
p3893
I0
I1
tp3894
Rp3895
(I3
S'|'
p3896
NNNI1
I1
I0
tp3897
bg82
tp3898
Rp3899
sg7
Nsg8
Nsg50
Nsg51
Nsbsg50
g40
(g54
S'\x00\x00\x00\x00\x00\x00\x08@'
p3900
tp3901
Rp3902
sg51
g0
(g36
g2
Ntp3903
Rp3904
(dp3905
g6
g40
(g41
(S'S1'
p3906
I0
I1
tp3907
Rp3908
(I3
S'|'
p3909
NNNI1
I1
I0
tp3910
bg68
tp3911
Rp3912
sg7
Nsg8
Nsg50
Nsg51
Nsbsbsg50
g40
(g54
S'\x00\x00\x00\x00\x00\x00&@'
p3913
tp3914
Rp3915
sg51
g0
(g36
g2
Ntp3916
Rp3917
(dp3918
g6
g40
(g41
(S'S1'
p3919
I0
I1
tp3920
Rp3921
(I3
S'|'
p3922
NNNI1
I1
I0
tp3923
bg82
tp3924
Rp3925
sg7
Nsg8
Nsg50
Nsg51
Nsbsbsbsg50
g40
(g54
S'\x00\x00\x00\x00\x00\x00&@'
p3926
tp3927
Rp3928
sg51
g0
(g1
g2
Ntp3929
Rp3930
(dp3931
g6
Nsg7
I9
sg8
g0
(g1
g2
Ntp3932
Rp3933
(dp3934
g6
Nsg7
I7
sg8
g0
(g1
g2
Ntp3935
Rp3936
(dp3937
g6
Nsg7
I15
sg8
g0
(g36
g2
Ntp3938
Rp3939
(dp3940
g6
g40
(g41
(S'S1'
p3941
I0
I1
tp3942
Rp3943
(I3
S'|'
p3944
NNNI1
I1
I0
tp3945
bg82
tp3946
Rp3947
sg7
Nsg8
Nsg50
Nsg51
Nsbsg50
g40
(g54
S'\x00\x00\x00\x00\x00\x00\x18@'
p3948
tp3949
Rp3950
sg51
g0
(g36
g2
Ntp3951
Rp3952
(dp3953
g6
g40
(g41
(S'S1'
p3954
I0
I1
tp3955
Rp3956
(I3
S'|'
p3957
NNNI1
I1
I0
tp3958
bg68
tp3959
Rp3960
sg7
Nsg8
Nsg50
Nsg51
Nsbsbsg50
g40
(g54
S'\x00\x00\x00\x00\x00\x00\x14@'
p3961
tp3962
Rp3963
sg51
g0
(g1
g2
Ntp3964
Rp3965
(dp3966
g6
Nsg7
I14
sg8
g0
(g36
g2
Ntp3967
Rp3968
(dp3969
g6
g40
(g41
(S'S1'
p3970
I0
I1
tp3971
Rp3972
(I3
S'|'
p3973
NNNI1
I1
I0
tp3974
bg68
tp3975
Rp3976
sg7
Nsg8
Nsg50
Nsg51
Nsbsg50
g40
(g54
S'\x00\x00\x00\x00\x00\x00\x08@'
p3977
tp3978
Rp3979
sg51
g0
(g36
g2
Ntp3980
Rp3981
(dp3982
g6
g40
(g41
(S'S1'
p3983
I0
I1
tp3984
Rp3985
(I3
S'|'
p3986
NNNI1
I1
I0
tp3987
bg82
tp3988
Rp3989
sg7
Nsg8
Nsg50
Nsg51
Nsbsbsbsg50
g40
(g54
S'\x00\x00\x00\x00\x00\x00&@'
p3990
tp3991
Rp3992
sg51
g0
(g1
g2
Ntp3993
Rp3994
(dp3995
g6
Nsg7
I12
sg8
g0
(g1
g2
Ntp3996
Rp3997
(dp3998
g6
Nsg7
I7
sg8
g0
(g1
g2
Ntp3999
Rp4000
(dp4001
g6
Nsg7
I9
sg8
g0
(g1
g2
Ntp4002
Rp4003
(dp4004
g6
Nsg7
I15
sg8
g0
(g36
g2
Ntp4005
Rp4006
(dp4007
g6
g40
(g41
(S'S1'
p4008
I0
I1
tp4009
Rp4010
(I3
S'|'
p4011
NNNI1
I1
I0
tp4012
bg284
tp4013
Rp4014
sg7
Nsg8
Nsg50
Nsg51
Nsbsg50
g40
(g54
S'\x00\x00\x00\x00\x00\x00$@'
p4015
tp4016
Rp4017
sg51
g0
(g1
g2
Ntp4018
Rp4019
(dp4020
g6
Nsg7
I11
sg8
g0
(g36
g2
Ntp4021
Rp4022
(dp4023
g6
g40
(g41
(S'S1'
p4024
I0
I1
tp4025
Rp4026
(I3
S'|'
p4027
NNNI1
I1
I0
tp4028
bg298
tp4029
Rp4030
sg7
Nsg8
Nsg50
Nsg51
Nsbsg50
g40
(g54
S'\x00\x00\x00\x00\x00\x00\x1c@'
p4031
tp4032
Rp4033
sg51
g0
(g1
g2
Ntp4034
Rp4035
(dp4036
g6
Nsg7
I7
sg8
g0
(g36
g2
Ntp4037
Rp4038
(dp4039
g6
g40
(g41
(S'S1'
p4040
I0
I1
tp4041
Rp4042
(I3
S'|'
p4043
NNNI1
I1
I0
tp4044
bg284
tp4045
Rp4046
sg7
Nsg8
Nsg50
Nsg51
Nsbsg50
g40
(g54
S'\x00\x00\x00\x00\x00\x00\x1c@'
p4047
tp4048
Rp4049
sg51
g0
(g36
g2
Ntp4050
Rp4051
(dp4052
g6
g40
(g41
(S'S1'
p4053
I0
I1
tp4054
Rp4055
(I3
S'|'
p4056
NNNI1
I1
I0
tp4057
bg298
tp4058
Rp4059
sg7
Nsg8
Nsg50
Nsg51
Nsbsbsbsbsg50
g40
(g54
S'\x00\x00\x00\x00\x00\x00 @'
p4060
tp4061
Rp4062
sg51
g0
(g1
g2
Ntp4063
Rp4064
(dp4065
g6
Nsg7
I14
sg8
g0
(g1
g2
Ntp4066
Rp4067
(dp4068
g6
Nsg7
I0
sg8
g0
(g36
g2
Ntp4069
Rp4070
(dp4071
g6
g40
(g41
(S'S1'
p4072
I0
I1
tp4073
Rp4074
(I3
S'|'
p4075
NNNI1
I1
I0
tp4076
bg298
tp4077
Rp4078
sg7
Nsg8
Nsg50
Nsg51
Nsbsg50
g40
(g54
S'\x00\x00\x00\x00\x00\x00\x14@'
p4079
tp4080
Rp4081
sg51
g0
(g36
g2
Ntp4082
Rp4083
(dp4084
g6
g40
(g41
(S'S1'
p4085
I0
I1
tp4086
Rp4087
(I3
S'|'
p4088
NNNI1
I1
I0
tp4089
bg68
tp4090
Rp4091
sg7
Nsg8
Nsg50
Nsg51
Nsbsbsg50
g40
(g54
S'\x00\x00\x00\x00\x00\x00\x14@'
p4092
tp4093
Rp4094
sg51
g0
(g1
g2
Ntp4095
Rp4096
(dp4097
g6
Nsg7
I7
sg8
g0
(g36
g2
Ntp4098
Rp4099
(dp4100
g6
g40
(g41
(S'S1'
p4101
I0
I1
tp4102
Rp4103
(I3
S'|'
p4104
NNNI1
I1
I0
tp4105
bg298
tp4106
Rp4107
sg7
Nsg8
Nsg50
Nsg51
Nsbsg50
g40
(g54
S'\x00\x00\x00\x00\x00\x00\x1c@'
p4108
tp4109
Rp4110
sg51
g0
(g36
g2
Ntp4111
Rp4112
(dp4113
g6
g40
(g41
(S'S1'
p4114
I0
I1
tp4115
Rp4116
(I3
S'|'
p4117
NNNI1
I1
I0
tp4118
bg284
tp4119
Rp4120
sg7
Nsg8
Nsg50
Nsg51
Nsbsbsbsbsg50
g40
(g54
S'\x00\x00\x00\x00\x00\x00\x14@'
p4121
tp4122
Rp4123
sg51
g0
(g1
g2
Ntp4124
Rp4125
(dp4126
g6
Nsg7
I12
sg8
g0
(g1
g2
Ntp4127
Rp4128
(dp4129
g6
Nsg7
I7
sg8
g0
(g36
g2
Ntp4130
Rp4131
(dp4132
g6
g40
(g41
(S'S1'
p4133
I0
I1
tp4134
Rp4135
(I3
S'|'
p4136
NNNI1
I1
I0
tp4137
bg82
tp4138
Rp4139
sg7
Nsg8
Nsg50
Nsg51
Nsbsg50
g40
(g54
S'\x00\x00\x00\x00\x00\x00\x10@'
p4140
tp4141
Rp4142
sg51
g0
(g1
g2
Ntp4143
Rp4144
(dp4145
g6
Nsg7
I10
sg8
g0
(g36
g2
Ntp4146
Rp4147
(dp4148
g6
g40
(g41
(S'S1'
p4149
I0
I1
tp4150
Rp4151
(I3
S'|'
p4152
NNNI1
I1
I0
tp4153
bg325
tp4154
Rp4155
sg7
Nsg8
Nsg50
Nsg51
Nsbsg50
g40
(g54
S'\x00\x00\x00\x00\x00\x00\x1c@'
p4156
tp4157
Rp4158
sg51
g0
(g36
g2
Ntp4159
Rp4160
(dp4161
g6
g40
(g41
(S'S1'
p4162
I0
I1
tp4163
Rp4164
(I3
S'|'
p4165
NNNI1
I1
I0
tp4166
bg82
tp4167
Rp4168
sg7
Nsg8
Nsg50
Nsg51
Nsbsbsbsg50
g40
(g54
S'\x00\x00\x00\x00\x00\x00\x14@'
p4169
tp4170
Rp4171
sg51
g0
(g1
g2
Ntp4172
Rp4173
(dp4174
g6
Nsg7
I2
sg8
g0
(g36
g2
Ntp4175
Rp4176
(dp4177
g6
g40
(g41
(S'S1'
p4178
I0
I1
tp4179
Rp4180
(I3
S'|'
p4181
NNNI1
I1
I0
tp4182
bg68
tp4183
Rp4184
sg7
Nsg8
Nsg50
Nsg51
Nsbsg50
g40
(g54
S'\x00\x00\x00\x00\x00\x00\x1c@'
p4185
tp4186
Rp4187
sg51
g0
(g1
g2
Ntp4188
Rp4189
(dp4190
g6
Nsg7
I0
sg8
g0
(g36
g2
Ntp4191
Rp4192
(dp4193
g6
g40
(g41
(S'S1'
p4194
I0
I1
tp4195
Rp4196
(I3
S'|'
p4197
NNNI1
I1
I0
tp4198
bg298
tp4199
Rp4200
sg7
Nsg8
Nsg50
Nsg51
Nsbsg50
g40
(g54
S'\x00\x00\x00\x00\x00\x00\x18@'
p4201
tp4202
Rp4203
sg51
g0
(g36
g2
Ntp4204
Rp4205
(dp4206
g6
g40
(g41
(S'S1'
p4207
I0
I1
tp4208
Rp4209
(I3
S'|'
p4210
NNNI1
I1
I0
tp4211
bg47
tp4212
Rp4213
sg7
Nsg8
Nsg50
Nsg51
Nsbsbsbsbsbsg50
g40
(g54
S'\x00\x00\x00\x00\x00\x00\x08@'
p4214
tp4215
Rp4216
sg51
g0
(g1
g2
Ntp4217
Rp4218
(dp4219
g6
Nsg7
I7
sg8
g0
(g1
g2
Ntp4220
Rp4221
(dp4222
g6
Nsg7
I8
sg8
g0
(g1
g2
Ntp4223
Rp4224
(dp4225
g6
Nsg7
I0
sg8
g0
(g1
g2
Ntp4226
Rp4227
(dp4228
g6
Nsg7
I1
sg8
g0
(g1
g2
Ntp4229
Rp4230
(dp4231
g6
Nsg7
I5
sg8
g0
(g36
g2
Ntp4232
Rp4233
(dp4234
g6
g40
(g41
(S'S1'
p4235
I0
I1
tp4236
Rp4237
(I3
S'|'
p4238
NNNI1
I1
I0
tp4239
bg284
tp4240
Rp4241
sg7
Nsg8
Nsg50
Nsg51
Nsbsg50
g40
(g54
S'\x00\x00\x00\x00\x00\x00\x18@'
p4242
tp4243
Rp4244
sg51
g0
(g36
g2
Ntp4245
Rp4246
(dp4247
g6
g40
(g41
(S'S1'
p4248
I0
I1
tp4249
Rp4250
(I3
S'|'
p4251
NNNI1
I1
I0
tp4252
bg82
tp4253
Rp4254
sg7
Nsg8
Nsg50
Nsg51
Nsbsbsg50
g40
(g54
S'\x00\x00\x00\x00\x00\x00"@'
p4255
tp4256
Rp4257
sg51
g0
(g36
g2
Ntp4258
Rp4259
(dp4260
g6
g40
(g41
(S'S1'
p4261
I0
I1
tp4262
Rp4263
(I3
S'|'
p4264
NNNI1
I1
I0
tp4265
bg82
tp4266
Rp4267
sg7
Nsg8
Nsg50
Nsg51
Nsbsbsg50
g40
(g54
S'\x00\x00\x00\x00\x00\x00\x08@'
p4268
tp4269
Rp4270
sg51
g0
(g36
g2
Ntp4271
Rp4272
(dp4273
g6
g40
(g41
(S'S1'
p4274
I0
I1
tp4275
Rp4276
(I3
S'|'
p4277
NNNI1
I1
I0
tp4278
bg68
tp4279
Rp4280
sg7
Nsg8
Nsg50
Nsg51
Nsbsbsg50
g40
(g54
S'\x00\x00\x00\x00\x00\x00 @'
p4281
tp4282
Rp4283
sg51
g0
(g36
g2
Ntp4284
Rp4285
(dp4286
g6
g40
(g41
(S'S1'
p4287
I0
I1
tp4288
Rp4289
(I3
S'|'
p4290
NNNI1
I1
I0
tp4291
bg284
tp4292
Rp4293
sg7
Nsg8
Nsg50
Nsg51
Nsbsbsg50
g40
(g54
S'\x00\x00\x00\x00\x00\x00\x10@'
p4294
tp4295
Rp4296
sg51
g0
(g36
g2
Ntp4297
Rp4298
(dp4299
g6
g40
(g41
(S'S1'
p4300
I0
I1
tp4301
Rp4302
(I3
S'|'
p4303
NNNI1
I1
I0
tp4304
bg68
tp4305
Rp4306
sg7
Nsg8
Nsg50
Nsg51
Nsbsbsbsbsbsbsbsg50
g40
(g54
S'\x00\x00\x00\x00\x00\x00\x08@'
p4307
tp4308
Rp4309
sg51
g0
(g1
g2
Ntp4310
Rp4311
(dp4312
g6
Nsg7
I15
sg8
g0
(g1
g2
Ntp4313
Rp4314
(dp4315
g6
Nsg7
I0
sg8
g0
(g36
g2
Ntp4316
Rp4317
(dp4318
g6
g40
(g41
(S'S1'
p4319
I0
I1
tp4320
Rp4321
(I3
S'|'
p4322
NNNI1
I1
I0
tp4323
bg284
tp4324
Rp4325
sg7
Nsg8
Nsg50
Nsg51
Nsbsg50
g40
(g54
S'\x00\x00\x00\x00\x00\x00"@'
p4326
tp4327
Rp4328
sg51
g0
(g36
g2
Ntp4329
Rp4330
(dp4331
g6
g40
(g41
(S'S1'
p4332
I0
I1
tp4333
Rp4334
(I3
S'|'
p4335
NNNI1
I1
I0
tp4336
bg47
tp4337
Rp4338
sg7
Nsg8
Nsg50
Nsg51
Nsbsbsg50
g40
(g54
S'\x00\x00\x00\x00\x00\x00&@'
p4339
tp4340
Rp4341
sg51
g0
(g1
g2
Ntp4342
Rp4343
(dp4344
g6
Nsg7
I12
sg8
g0
(g1
g2
Ntp4345
Rp4346
(dp4347
g6
Nsg7
I2
sg8
g0
(g36
g2
Ntp4348
Rp4349
(dp4350
g6
g40
(g41
(S'S1'
p4351
I0
I1
tp4352
Rp4353
(I3
S'|'
p4354
NNNI1
I1
I0
tp4355
bg325
tp4356
Rp4357
sg7
Nsg8
Nsg50
Nsg51
Nsbsg50
g40
(g54
S'\x00\x00\x00\x00\x00\x00\x18@'
p4358
tp4359
Rp4360
sg51
g0
(g1
g2
Ntp4361
Rp4362
(dp4363
g6
Nsg7
I0
sg8
g0
(g36
g2
Ntp4364
Rp4365
(dp4366
g6
g40
(g41
(S'S1'
p4367
I0
I1
tp4368
Rp4369
(I3
S'|'
p4370
NNNI1
I1
I0
tp4371
bg284
tp4372
Rp4373
sg7
Nsg8
Nsg50
Nsg51
Nsbsg50
g40
(g54
S'\x00\x00\x00\x00\x00\x00\x14@'
p4374
tp4375
Rp4376
sg51
g0
(g36
g2
Ntp4377
Rp4378
(dp4379
g6
g40
(g41
(S'S1'
p4380
I0
I1
tp4381
Rp4382
(I3
S'|'
p4383
NNNI1
I1
I0
tp4384
bg325
tp4385
Rp4386
sg7
Nsg8
Nsg50
Nsg51
Nsbsbsbsg50
g40
(g54
S'\x00\x00\x00\x00\x00\x00\x10@'
p4387
tp4388
Rp4389
sg51
g0
(g36
g2
Ntp4390
Rp4391
(dp4392
g6
g40
(g41
(S'S1'
p4393
I0
I1
tp4394
Rp4395
(I3
S'|'
p4396
NNNI1
I1
I0
tp4397
bg325
tp4398
Rp4399
sg7
Nsg8
Nsg50
Nsg51
Nsbsbsbsb.